"File: UART.c        Assembler  Version HGASM0202      Page 1


   1  0000              ; Generated by holtek-gcc v3.19, Wed Nov 08 15:33:33 2023
   2  0000              ; 
   3  0000              ; Configuration:
   4  0000              ;       with long instruction
   5  0000              ;       Multi-ROM, Multi-RAM
   6  0000              ;       bits_per_rom_unit:16
   7  0000              ;       with mp1
   8  0000              ;       with tbhp, address(0x9)
   9  0000              ;          Use tabrd-const
  10  0000              ;       
  11  0000              ; SFR address of long-instruction arch:
  12  0000              ;    mp0 = -1,1,0
  13  0000              ;    mp1 = 4,3,2
  14  0000              ;    mp2 = 14,13,12
  15  0000              ;    tbp = 9,7,8
  16  0000              ;    acc = 5
  17  0000              ;    pcl = 6
  18  0000              ;    status = 10
  19  0000              ;    bp = 11
  20  0000              ;    intc = 16
  21  0000              ;       
  22  0000              ;       
  23  0000              ; use 'tabrdc' instead of 'tabrd'
  24  0000              ;       
  25  0000              
  26  0000              #pragma translator "holtek-gcc 4.6.4" "3.19" "build 20130711"
  27  0000              ; Rebuild 718
  28  0000              
  29  0000              ir equ [2]
  30  0000              mp equ [3]
  31  0000              sbp equ [4]
  32  0000              acc equ [5]
  33  0000              bp equ [11]
  34  0000              tblp equ [7]
  35  0000              tbhp equ [9]
  36  0000              status equ [10]
  37  0000              c equ [10].0
  38  0000              ac equ [10].1
  39  0000              z equ [10].2
  40  0000              ov equ [10].3
  41  0000              cz equ [10].6
  42  0000              sc equ [10].7
  43  0000              intc equ [16]
  44  0000              mduwr0 equ [59h]
  45  0000              mduwr1 equ [5ah]
  46  0000              mduwr2 equ [5bh]
  47  0000              mduwr3 equ [5ch]
  48  0000              mduwr4 equ [5dh]
  49  0000              mduwr5 equ [5eh]
  50  0000              mduwrctrl equ [5fh]
  51  0000              
  52  0000              extern ra:byte
  53  0000              extern rb:byte
  54  0000              extern rc:byte
  55  0000              extern rd:byte
  56  0000              extern re:byte
  57  0000              extern rf:byte
  58  0000              extern rg:byte
  59  0000              extern rh:byte
"File: UART.ASM      Assembler  Version HGASM0202      Page 2

  60  0000              extern _Crom2Prom:near
  61  0000              extern _Crom2PromNext:near
  62  0000              
  63  0000              RAMBANK 0 @BITDATASEC, @BITDATASEC1
  64  0000              @HCCINIT	.section 'data'
  65  0000              @HCCINIT0	.section 'data'
  66  0000              @BITDATASEC	 .section 'data'
  67  0000              @BITDATASEC1	 .section 'data'
  68  0000              
  69  0000              #pragma debug scope 1 1
  70  0000              	extern __DELAY3:near
  71  0000              	extern __DELAYX3:near
  72  0000              	extern __DELAYX6:near
  73  0000              	extern __DELAYY5:near
  74  0000              	extern __DELAYY3:near
  75  0000              	extern _builtin_holtek_delay_2:byte
  76  0000              public _Delayms
  77  0000              #pragma debug scope 2 1

  41  0000              #line 41 "c:\users\icetz\onedrive\文件\htk_project\uart\UART.c"
  41  0000              _Delayms .section 'code'
  41  0000              _Delayms proc
  41  0000              public _Delayms_2
  41  0000  0002[           local _Delayms_2 db 2 dup(?)	; 2,0
            00
            ]
  41  0002              #pragma debug variable 10 2 _Delayms_2+0 "del"
  42  0002              #line 42 "c:\users\icetz\onedrive\文件\htk_project\uart\UART.c"
  42  0000  1F00     E  	clr rb
  42  0001  1F00     E  	clr rc
  42  0002  2800     R  	jmp _L2
  42  0003              _L3:
  42  0003              #line 42 "c:\users\icetz\onedrive\文件\htk_project\uart\UART.c"
  42  0003              ;# 42 "c:\users\icetz\onedrive\文件\htk_project\uart\UART.c" 1
  42  0003              	IF 2000>263690
  42  0003              ;# 42 "c:\users\icetz\onedrive\文件\htk_project\uart\UART.c" 1
  42  0003              	ERRMESSAGE 'the value 2000of the argument exceeds the maxinum 263690'
  42  0003              	ENDIF
  42  0003              ;# 42 "c:\users\icetz\onedrive\文件\htk_project\uart\UART.c" 1
  42  0003              	IF 2000<0
  42  0003              ;# 42 "c:\users\icetz\onedrive\文件\htk_project\uart\UART.c" 1
  42  0003              	ERRMESSAGE 'the value 2000 of the argument exceeds the mininum 0'
  42  0003              	ENDIF
  42  0003              ;# 42 "c:\users\icetz\onedrive\文件\htk_project\uart\UART.c" 1
  42  0003              	IF 2000==0
  42  0003              ;# 42 "c:\users\icetz\onedrive\文件\htk_project\uart\UART.c" 1
  42  0003              	JMP $
  42  0003              	ENDIF
  42  0003              ;# 42 "c:\users\icetz\onedrive\文件\htk_project\uart\UART.c" 1
  42  0003              	IF (2000>=1) AND (2000<( 4 + __PBP__ * 2))
  42  0003              ;# 42 "c:\users\icetz\onedrive\文件\htk_project\uart\UART.c" 1
  42  0003              	NOP
  42  0003              	ENDIF
  42  0003              ;# 42 "c:\users\icetz\onedrive\文件\htk_project\uart\UART.c" 1
  42  0003              	IF (2000>=2) AND (2000<( 4 + __PBP__ * 2))
  42  0003              ;# 42 "c:\users\icetz\onedrive\文件\htk_project\uart\UART.c" 1
  42  0003              	NOP
  42  0003              	ENDIF
  42  0003              ;# 42 "c:\users\icetz\onedrive\文件\htk_project\uart\UART.c" 1
  42  0003              	IF (2000>=3) AND (2000<( 4 + __PBP__ * 2))
"File: UART.c        Assembler  Version HGASM0202      Page 3

  42  0003              ;# 42 "c:\users\icetz\onedrive\文件\htk_project\uart\UART.c" 1
  42  0003              	NOP
  42  0003              	ENDIF
  42  0003              ;# 42 "c:\users\icetz\onedrive\文件\htk_project\uart\UART.c" 1
  42  0003              	IF (2000>=4) AND (2000<( 4 + __PBP__ * 2)) AND ( __PBP__ > 0 )
  42  0003              ;# 42 "c:\users\icetz\onedrive\文件\htk_project\uart\UART.c" 1
  42  0003              	NOP
  42  0003              	ENDIF
  42  0003              ;# 42 "c:\users\icetz\onedrive\文件\htk_project\uart\UART.c" 1
  42  0003              	IF (2000>=5) AND (2000<( 4 + __PBP__ * 2)) AND ( __PBP__ > 0 )
  42  0003              ;# 42 "c:\users\icetz\onedrive\文件\htk_project\uart\UART.c" 1
  42  0003              	NOP
  42  0003              	ENDIF
  42  0003              ;# 42 "c:\users\icetz\onedrive\文件\htk_project\uart\UART.c" 1
  42  0003              	IF (2000>=6) AND (2000<( 4 + __PBP__ * 2))  AND ( __PBP__ > 1 )
  42  0003              ;# 42 "c:\users\icetz\onedrive\文件\htk_project\uart\UART.c" 1
  42  0003              	NOP
  42  0003              	ENDIF
  42  0003              ;# 42 "c:\users\icetz\onedrive\文件\htk_project\uart\UART.c" 1
  42  0003              	IF (2000>=7) AND (2000<( 4 + __PBP__ * 2))  AND ( __PBP__ > 1 )
  42  0003              ;# 42 "c:\users\icetz\onedrive\文件\htk_project\uart\UART.c" 1
  42  0003              	NOP
  42  0003              	ENDIF
  42  0003              ;# 42 "c:\users\icetz\onedrive\文件\htk_project\uart\UART.c" 1
  42  0003              	IF (2000>=8) AND (2000<( 4 + __PBP__ * 2))  AND ( __PBP__ > 2 )
  42  0003              ;# 42 "c:\users\icetz\onedrive\文件\htk_project\uart\UART.c" 1
  42  0003              	NOP
  42  0003              	ENDIF
  42  0003              ;# 42 "c:\users\icetz\onedrive\文件\htk_project\uart\UART.c" 1
  42  0003              	IF (2000==9)  AND ( __PBP__ > 2 )
  42  0003              ;# 42 "c:\users\icetz\onedrive\文件\htk_project\uart\UART.c" 1
  42  0003              	NOP
  42  0003              	ENDIF
  42  0003              ;# 42 "c:\users\icetz\onedrive\文件\htk_project\uart\UART.c" 1
  42  0003              	IF (2000< ( 8 + __PBP__ * 2)) AND (2000>( 3 + __PBP__ * 2))
  42  0003              ;# 42 "c:\users\icetz\onedrive\文件\htk_project\uart\UART.c" 1
  42  0003              	fcall __DELAY3 + ( 7 + __PBP__ * 2) -2000
  42  0003              	ENDIF
  42  0003              ;# 42 "c:\users\icetz\onedrive\文件\htk_project\uart\UART.c" 1
  42  0003              	IF (2000< ( 0404h + __PBP__ * 2)) AND (2000>( 7 + __PBP__ * 2))
  42  0003              ;# 42 "c:\users\icetz\onedrive\文件\htk_project\uart\UART.c" 1
  42  0003              	MOV A,(2000-( 4 + __PBP__ * 2))/4
  42  0003              ;# 42 "c:\users\icetz\onedrive\文件\htk_project\uart\UART.c" 1
  42  0003              	fcall __DELAYX3 + 3 -((2000-( 4 + __PBP__ * 2)) MOD 4) 
  42  0003              	ENDIF
  42  0003              ;# 42 "c:\users\icetz\onedrive\文件\htk_project\uart\UART.c" 1
  42  0003              	IF (2000< ( 040bh + __PBP__ * 2)) AND (2000> ( 0403h + __PBP__ * 2))
  42  0003              ;# 42 "c:\users\icetz\onedrive\文件\htk_project\uart\UART.c" 1
  42  0003              	MOV A,0 
  42  0003              ;# 42 "c:\users\icetz\onedrive\文件\htk_project\uart\UART.c" 1
  42  0003              	fcall __DELAYX6 + ( 040ah + __PBP__ * 2) -2000
  42  0003              	ENDIF
  42  0003              ;# 42 "c:\users\icetz\onedrive\文件\htk_project\uart\UART.c" 1
  42  0003              	IF (2000 >= ( 040bh + __PBP__ * 2)) AND ((((2000-( 9 + __PBP__ * 2))%0402h)/4+1)>256)
  42  0003              ;# 42 "c:\users\icetz\onedrive\文件\htk_project\uart\UART.c" 1
  42  0003              	MOV A,(2000-( 9 + __PBP__ * 2))/0402h
  42  0003              ;# 42 "c:\users\icetz\onedrive\文件\htk_project\uart\UART.c" 1
  42  0003              	MOV _builtin_holtek_delay_2,A
  42  0003              ;# 42 "c:\users\icetz\onedrive\文件\htk_project\uart\UART.c" 1
  42  0003              	MOV A,0
"File: UART.c        Assembler  Version HGASM0202      Page 4

  42  0003              ;# 42 "c:\users\icetz\onedrive\文件\htk_project\uart\UART.c" 1
  42  0003              	fcall __DELAYY5 +5- (((2000-( 9 + __PBP__ * 2))%0402h)%6) 
  42  0003              	ENDIF
  42  0003              ;# 42 "c:\users\icetz\onedrive\文件\htk_project\uart\UART.c" 1
  42  0003              	IF (2000 >= ( 040bh + __PBP__ * 2)) AND ((((2000-( 9 + __PBP__ * 2))%0402h)/4+1)<=256)
  42  0003              ;# 42 "c:\users\icetz\onedrive\文件\htk_project\uart\UART.c" 1
  42  0003  0F01        	MOV A,(2000-( 9 + __PBP__ * 2))/0402h
  42  0004              ;# 42 "c:\users\icetz\onedrive\文件\htk_project\uart\UART.c" 1
  42  0004  0080     E  	MOV _builtin_holtek_delay_2,A
  42  0005              ;# 42 "c:\users\icetz\onedrive\文件\htk_project\uart\UART.c" 1
  42  0005  0FF0        	MOV A,((2000-( 9 + __PBP__ * 2))%0402h)/4+1
  42  0006              ;# 42 "c:\users\icetz\onedrive\文件\htk_project\uart\UART.c" 1
  42  0006              	fcall __DELAYY3 +3-(((2000-( 9 + __PBP__ * 2))%0402h)%4) 
  42  000D              	ENDIF
  42  000D  1480     E  	inc rb
  42  000E  3D0A        	sz z
  42  000F  1480     E  	inc rc
  42  0010              _L2:
  42  0010  0700     E  	mov a,rb
  42  0011  0200     R  	sub a,_Delayms_2[0]
  42  0012  0700     E  	mov a,rc
  42  0013  1200     R  	sbc a,_Delayms_2[1]
  42  0014  3B0A        	snz cz
  42  0015  2800     R  	jmp _L3
  42  0016  0003        	ret
  42  0017              _Delayms endp
  42  0017              #line 42 "c:\users\icetz\onedrive\文件\htk_project\uart\UART.c"
  42  0017              #pragma debug scope 1 1
  42  0017              ___txr_rxr0 equ [275]
  42  0017              ___u0sr equ [272]
  42  0017              public _send_char
  42  0017              #pragma debug scope 3 1
  48  0017              #line 48 "c:\users\icetz\onedrive\文件\htk_project\uart\UART.c"
  48  0000              _send_char .section 'code'
  48  0000              _send_char proc
  48  0000  00              local _send_char_2 db 1 dup(?)	; 0,1
  48  0000  0080     E  	mov ra,a
  48  0001  0080     R  	mov _send_char_2[0],a
  48  0002              #pragma debug variable 7 3 _send_char_2+0 "s"
  49  0002              #line 49 "c:\users\icetz\onedrive\文件\htk_project\uart\UART.c"
  49  0002  0700     E  	mov a,ra
  49  0003  8093 0001   	lmov [275],a
  49  0005              _L7:
  50  0005              #line 50 "c:\users\icetz\onedrive\文件\htk_project\uart\UART.c"
  50  0005  B810 0001   	lsnz [272].0
  50  0007  2800     R  	jmp _L7
  50  0008  0003        	ret
  50  0009              _send_char endp
  50  0009              #line 50 "c:\users\icetz\onedrive\文件\htk_project\uart\UART.c"
  50  0009              #pragma debug scope 1 1
  50  0009              public _send_buff
  50  0009              #pragma debug scope 4 1
  54  0009              #line 54 "c:\users\icetz\onedrive\文件\htk_project\uart\UART.c"
  54  0000              _send_buff .section 'code'
  54  0000              _send_buff proc
  54  0000              public _send_buff_2
  54  0000  0002[           local _send_buff_2 db 2 dup(?)	; 2,0
            00
            ]
  54  0002              #pragma debug pointer 42 7 4
"File: UART.c        Assembler  Version HGASM0202      Page 5

  54  0002              #pragma debug pointer 42 7 4
  54  0002              #pragma debug variable 42 4 _send_buff_2+0 "s"
  55  0002              #line 55 "c:\users\icetz\onedrive\文件\htk_project\uart\UART.c"
  55  0000  2800     R  	jmp _L9
  55  0001              _L10:
  57  0001              #line 57 "c:\users\icetz\onedrive\文件\htk_project\uart\UART.c"
  57  0001  0700     E  	mov a,ra
  57  0002              	fcall _send_char
  58  0009              #line 58 "c:\users\icetz\onedrive\文件\htk_project\uart\UART.c"
  58  0009  1480     R  	inc _send_buff_2[0]
  58  000A  3D0A        	sz z
  58  000B  1480     R  	inc _send_buff_2[1]
  58  000C              _L9:
  55  000C              #line 55 "c:\users\icetz\onedrive\文件\htk_project\uart\UART.c"
  55  000C  0700     R  	mov a,_send_buff_2[0]
  55  000D  0083        	mov mp,a
  55  000E  0700     R  	mov a,_send_buff_2[1]
  55  000F  0084        	mov sbp,a
  55  0010              	fcall _Crom2Prom
  55  0017  0080     E  	mov ra,a
  55  0018  1080     E  	sz ra
  55  0019  2800     R  	jmp _L10
  55  001A  0003        	ret
  55  001B              _send_buff endp
  55  001B              #line 55 "c:\users\icetz\onedrive\文件\htk_project\uart\UART.c"
  55  001B              #pragma debug scope 1 1
  55  001B              ___pds0 equ [339]
  55  001B              ___pds1 equ [340]
  55  001B              ___stm1al equ [310]
  55  001B              ___stm1ah equ [311]
  55  001B              ___stm1rp equ [312]
  55  001B              ___stm1c0 equ [306]
  55  001B              ___stm1c1 equ [307]
  55  001B              ___ptm2al equ [294]
  55  001B              ___ptm2ah equ [295]
  55  001B              ___ptm2rpl equ [296]
  55  001B              ___ptm2rph equ [297]
  55  001B              ___ptm2c0 equ [290]
  55  001B              ___ptm2c1 equ [291]
  55  001B              ___ptm3al equ [302]
  55  001B              ___ptm3ah equ [303]
  55  001B              ___ptm3rpl equ [304]
  55  001B              ___ptm3rph equ [305]
  55  001B              ___ptm3c0 equ [298]
  55  001B              ___ptm3c1 equ [299]
  55  001B              public _initpwm
  55  001B              #pragma debug scope 5 1
  62  001B              #line 62 "c:\users\icetz\onedrive\文件\htk_project\uart\UART.c"
  62  0000              _initpwm .section 'code'
  62  0000              _initpwm proc
  63  0000              #line 63 "c:\users\icetz\onedrive\文件\htk_project\uart\UART.c"
  63  0000  0F12        	mov a,18
  63  0001  80D3 0001   	lmov [339],a
  63  0003  0F02        	mov a,2
  63  0004  80D4 0001   	lmov [340],a
  64  0006              #line 64 "c:\users\icetz\onedrive\文件\htk_project\uart\UART.c"
  64  0006  9F36 0001   	lclr [310]
  64  0008  9F37 0001   	lclr [311]
  65  000A              #line 65 "c:\users\icetz\onedrive\文件\htk_project\uart\UART.c"
  65  000A  9F38 0001   	lclr [312]
"File: UART.c        Assembler  Version HGASM0202      Page 6

  66  000C              #line 66 "c:\users\icetz\onedrive\文件\htk_project\uart\UART.c"
  66  000C  0F18        	mov a,24
  66  000D  80B2 0001   	lmov [306],a
  67  000F              #line 67 "c:\users\icetz\onedrive\文件\htk_project\uart\UART.c"
  67  000F  0FA8        	mov a,168
  67  0010  80B3 0001   	lmov [307],a
  69  0012              #line 69 "c:\users\icetz\onedrive\文件\htk_project\uart\UART.c"
  69  0012  9F26 0001   	lclr [294]
  69  0014  9F27 0001   	lclr [295]
  70  0016              #line 70 "c:\users\icetz\onedrive\文件\htk_project\uart\UART.c"
  70  0016  9F28 0001   	lclr [296]
  70  0018  0F04        	mov a,4
  70  0019  80A9 0001   	lmov [297],a
  71  001B              #line 71 "c:\users\icetz\onedrive\文件\htk_project\uart\UART.c"
  71  001B  0F18        	mov a,24
  71  001C  80A2 0001   	lmov [290],a
  72  001E              #line 72 "c:\users\icetz\onedrive\文件\htk_project\uart\UART.c"
  72  001E  0FA8        	mov a,168
  72  001F  80A3 0001   	lmov [291],a
  74  0021              #line 74 "c:\users\icetz\onedrive\文件\htk_project\uart\UART.c"
  74  0021  9F2E 0001   	lclr [302]
  74  0023  9F2F 0001   	lclr [303]
  75  0025              #line 75 "c:\users\icetz\onedrive\文件\htk_project\uart\UART.c"
  75  0025  9F30 0001   	lclr [304]
  75  0027  0F04        	mov a,4
  75  0028  80B1 0001   	lmov [305],a
  76  002A              #line 76 "c:\users\icetz\onedrive\文件\htk_project\uart\UART.c"
  76  002A  0F18        	mov a,24
  76  002B  80AA 0001   	lmov [298],a
  77  002D              #line 77 "c:\users\icetz\onedrive\文件\htk_project\uart\UART.c"
  77  002D  0FA8        	mov a,168
  77  002E  80AB 0001   	lmov [299],a
  77  0030  0003        	ret
  77  0031              _initpwm endp
  77  0031              #line 77 "c:\users\icetz\onedrive\文件\htk_project\uart\UART.c"
  77  0031              #pragma debug scope 1 1
  77  0031              ___papu equ [22]
  77  0031              ___pas1 equ [334]
  77  0031              ___u0cr1 equ [273]
  77  0031              ___u0cr2 equ [274]
  77  0031              ___brg0 equ [276]
  77  0031              ___mfi5 equ [56]
  77  0031              ___intc3 equ [19]
  77  0031              ___intc0 equ [16]
  77  0031              public _inituart
  77  0031              #pragma debug scope 6 1
  80  0031              #line 80 "c:\users\icetz\onedrive\文件\htk_project\uart\UART.c"
  80  0000              _inituart .section 'code'
  80  0000              _inituart proc
  82  0000              #line 82 "c:\users\icetz\onedrive\文件\htk_project\uart\UART.c"
  82  0000  3316        	set [22].6
  83  0001              #line 83 "c:\users\icetz\onedrive\文件\htk_project\uart\UART.c"
  83  0001  3396        	set [22].7
  84  0002              #line 84 "c:\users\icetz\onedrive\文件\htk_project\uart\UART.c"
  84  0002  0FC0        	mov a,192
  84  0003  80CE 0001   	lmov [334],a
  85  0005              #line 85 "c:\users\icetz\onedrive\文件\htk_project\uart\UART.c"
  85  0005  0F80        	mov a,128
  85  0006  8091 0001   	lmov [273],a
  86  0008              #line 86 "c:\users\icetz\onedrive\文件\htk_project\uart\UART.c"
"File: UART.c        Assembler  Version HGASM0202      Page 7

  86  0008  0FE4        	mov a,228
  86  0009  8092 0001   	lmov [274],a
  87  000B              #line 87 "c:\users\icetz\onedrive\文件\htk_project\uart\UART.c"
  87  000B  0F19        	mov a,25
  87  000C  8094 0001   	lmov [276],a
  88  000E              #line 88 "c:\users\icetz\onedrive\文件\htk_project\uart\UART.c"
  88  000E  3038        	set [56].0
  89  000F              #line 89 "c:\users\icetz\onedrive\文件\htk_project\uart\UART.c"
  89  000F  3193        	set [19].3
  90  0010              #line 90 "c:\users\icetz\onedrive\文件\htk_project\uart\UART.c"
  90  0010  3010        	set [16].0
  90  0011  0003        	ret
  90  0012              _inituart endp
  90  0012              #line 90 "c:\users\icetz\onedrive\文件\htk_project\uart\UART.c"
  90  0012              #pragma debug scope 1 1
  90  0012              ___integ equ [57]
  90  0012              public _initInt
  90  0012              #pragma debug scope 7 1
  94  0012              #line 94 "c:\users\icetz\onedrive\文件\htk_project\uart\UART.c"
  94  0000              _initInt .section 'code'
  94  0000              _initInt proc
  95  0000              #line 95 "c:\users\icetz\onedrive\文件\htk_project\uart\UART.c"
  95  0000  3096        	set [22].1
  98  0001              #line 98 "c:\users\icetz\onedrive\文件\htk_project\uart\UART.c"
  98  0001  0F0A        	mov a,10
  98  0002  00B9        	mov [57],a
  99  0003              #line 99 "c:\users\icetz\onedrive\文件\htk_project\uart\UART.c"
  99  0003  3090        	set [16].1
  99  0004  3110        	set [16].2
  99  0005  3010        	set [16].0
  99  0006  0003        	ret
  99  0007              _initInt endp
  99  0007              #line 99 "c:\users\icetz\onedrive\文件\htk_project\uart\UART.c"
  99  0007              #pragma debug scope 1 1
  99  0007              ___pac equ [21]
  99  0007              public _initGPIO
  99  0007              #pragma debug scope 8 1
 102  0007              #line 102 "c:\users\icetz\onedrive\文件\htk_project\uart\UART.c"
 102  0000              _initGPIO .section 'code'
 102  0000              _initGPIO proc
 103  0000              #line 103 "c:\users\icetz\onedrive\文件\htk_project\uart\UART.c"
 103  0000  3095        	set [21].1
 103  0001  3096        	set [22].1
 103  0002  0003        	ret
 103  0003              _initGPIO endp
 103  0003              #line 103 "c:\users\icetz\onedrive\文件\htk_project\uart\UART.c"
 103  0003              #pragma debug scope 1 1
 103  0003              public _get_buff
 103  0003              #pragma debug scope 9 1
 106  0003              #line 106 "c:\users\icetz\onedrive\文件\htk_project\uart\UART.c"
 106  0000              _get_buff .section 'code'
 106  0000              _get_buff proc
 106  0000              public _get_buff_2
 106  0000  0003[           local _get_buff_2 db 3 dup(?)	; 3,0
            00
            ]
 106  0003              #pragma debug pointer 43 7 9
 106  0003              #pragma debug pointer 43 7 9
 106  0003              #pragma debug variable 43 9 _get_buff_2+0 "rbuff"
 106  0003              #pragma debug variable 7 9 _get_buff_2+2 "c"
"File: UART.c        Assembler  Version HGASM0202      Page 8

 107  0003              #line 107 "c:\users\icetz\onedrive\文件\htk_project\uart\UART.c"
 107  0000  1F00     E  	clr rb
 107  0001  1F00     E  	clr rc
 107  0002              _L17:
 110  0002              #line 110 "c:\users\icetz\onedrive\文件\htk_project\uart\UART.c"
 110  0002  B910 0001   	lsnz [272].2
 110  0004  2800     R  	jmp _L17
 111  0005              #line 111 "c:\users\icetz\onedrive\文件\htk_project\uart\UART.c"
 111  0005  8713 0001   	lmov a,[275]
 111  0007  0080     E  	mov ra,a
 114  0008              #line 114 "c:\users\icetz\onedrive\文件\htk_project\uart\UART.c"
 114  0008  0700     E  	mov a,rb
 114  0009  0300     R  	add a,_get_buff_2[0]
 114  000A  0083        	mov mp,a
 114  000B  0700     E  	mov a,rc
 114  000C  1300     R  	adc a,_get_buff_2[1]
 114  000D  0084        	mov sbp,a
 112  000E              #line 112 "c:\users\icetz\onedrive\文件\htk_project\uart\UART.c"
 112  000E  0700     E  	mov a,ra
 112  000F  0200     R  	sub a,_get_buff_2[2]
 112  0010  3D0A        	sz z
 112  0011  2800     R  	jmp _L21
 117  0012              #line 117 "c:\users\icetz\onedrive\文件\htk_project\uart\UART.c"
 117  0012  0700     E  	mov a,ra
 117  0013  0082        	mov ir,a
 118  0014              #line 118 "c:\users\icetz\onedrive\文件\htk_project\uart\UART.c"
 118  0014  1480     E  	inc rb
 118  0015  3D0A        	sz z
 118  0016  1480     E  	inc rc
 119  0017              #line 119 "c:\users\icetz\onedrive\文件\htk_project\uart\UART.c"
 119  0017  2800     R  	jmp _L17
 119  0018              _L21:
 114  0018              #line 114 "c:\users\icetz\onedrive\文件\htk_project\uart\UART.c"
 114  0018  0F0D        	mov a,13
 114  0019  0082        	mov ir,a
 120  001A              #line 120 "c:\users\icetz\onedrive\文件\htk_project\uart\UART.c"
 120  001A  0700     E  	mov a,rb
 120  001B  0080     E  	mov ra,a
 120  001C  0700     E  	mov a,rc
 120  001D  0080     E  	mov rb,a
 120  001E  0003        	ret
 120  001F              _get_buff endp
 120  001F              #line 120 "c:\users\icetz\onedrive\文件\htk_project\uart\UART.c"
 120  001F              #pragma debug scope 1 1
 120  001F              public _intToStr
 120  001F              #pragma debug scope 10 1
 124  001F              #line 124 "c:\users\icetz\onedrive\文件\htk_project\uart\UART.c"
 124  0000              _intToStr .section 'code'
 124  0000              _intToStr proc
 124  0000              public _intToStr_2
 124  0000  0014[           local _intToStr_2 db 20 dup(?)	; 4,16
            00
            ]
 124  0014              #pragma debug variable 11 10 _intToStr_2+0 "value"
 124  0014              #pragma debug pointer 44 7 10
 124  0014              #pragma debug pointer 44 7 10
 124  0014              #pragma debug variable 44 10 _intToStr_2+2 "str"
 130  0014              #line 130 "c:\users\icetz\onedrive\文件\htk_project\uart\UART.c"
 130  0000  0700     R  	mov a,_intToStr_2[0]
 130  0001  0500     R  	or a,_intToStr_2[1]
"File: UART.c        Assembler  Version HGASM0202      Page 9

 130  0002  390A        	snz z
 130  0003  2800     R  	jmp _L23
 132  0004              #line 132 "c:\users\icetz\onedrive\文件\htk_project\uart\UART.c"
 132  0004  0700     R  	mov a,_intToStr_2[2]
 132  0005  0083        	mov mp,a
 132  0006  0700     R  	mov a,_intToStr_2[3]
 132  0007  0084        	mov sbp,a
 132  0008  0F30        	mov a,48
 132  0009  0082        	mov ir,a
 133  000A              #line 133 "c:\users\icetz\onedrive\文件\htk_project\uart\UART.c"
 133  000A  0F01        	mov a,1
 133  000B  0300     R  	add a,_intToStr_2[2]
 133  000C  0083        	mov mp,a
 133  000D  0F00        	mov a,0
 133  000E  1300     R  	adc a,_intToStr_2[3]
 133  000F  0084        	mov sbp,a
 133  0010  2800     R  	jmp _L31
 133  0011              _L23:
 133  0011              #pragma debug scope 11 10
 133  0011              ;begin block, line: 133.-1
 133  0011              #pragma debug scope 12 11
 133  0011              ;begin block, line: 133.-1
 133  0011              #pragma debug array 45 7 10 12
 133  0011              #pragma debug array 45 7 10 12
 133  0011              #pragma debug variable 45 12 _intToStr_2+4 "temp"
 138  0011              #line 138 "c:\users\icetz\onedrive\文件\htk_project\uart\UART.c"
 138  0011  3800     R  	snz _intToStr_2[1].7
 138  0012  2800     R  	jmp _L30
 140  0013              #line 140 "c:\users\icetz\onedrive\文件\htk_project\uart\UART.c"
 140  0013  0700     R  	mov a,_intToStr_2[2]
 140  0014  0083        	mov mp,a
 140  0015  0700     R  	mov a,_intToStr_2[3]
 140  0016  0084        	mov sbp,a
 140  0017  0F2D        	mov a,45
 140  0018  0082        	mov ir,a
 141  0019              #line 141 "c:\users\icetz\onedrive\文件\htk_project\uart\UART.c"
 141  0019  0F00        	mov a,0
 141  001A  0280     R  	subm a,_intToStr_2[0]
 141  001B  0F00        	mov a,0
 141  001C  1280     R  	sbcm a,_intToStr_2[1]
 140  001D              #line 140 "c:\users\icetz\onedrive\文件\htk_project\uart\UART.c"
 140  001D  0F01        	mov a,1
 140  001E  0080     R  	mov _intToStr_2[14],a
 140  001F  1F00     R  	clr _intToStr_2[15]
 140  0020  2800     R  	jmp _L25
 140  0021              _L30:
 127  0021              #line 127 "c:\users\icetz\onedrive\文件\htk_project\uart\UART.c"
 127  0021  1F00     R  	clr _intToStr_2[14]
 127  0022  1F00     R  	clr _intToStr_2[15]
 127  0023              _L25:
 140  0023              #line 140 "c:\users\icetz\onedrive\文件\htk_project\uart\UART.c"
 140  0023  1F00     E  	clr rd
 140  0024  1F00     E  	clr re
 140  0025  0F00     R  	mov a,low offset _intToStr_2
 140  0026  0080     E  	mov rf,a
 140  0027  0F00     R  	mov a,high offset _intToStr_2
 140  0028  0080     E  	mov rg,a
 140  0029  0F04        	mov a,4
 140  002A  0380     E  	addm a,rf
 140  002B  0F00        	mov a,0
"File: UART.c        Assembler  Version HGASM0202      Page 10

 140  002C  1380     E  	adcm a,rg
 140  002D              _L28:
 147  002D              #line 147 "c:\users\icetz\onedrive\文件\htk_project\uart\UART.c"
 147  002D  1480     E  	inc rd
 147  002E  3D0A        	sz z
 147  002F  1480     E  	inc re
 147  0030  0700     E  	mov a,rd
 147  0031  0300     E  	add a,rf
 147  0032  0080     E  	mov rb,a
 147  0033  0700     E  	mov a,re
 147  0034  1300     E  	adc a,rg
 147  0035  0080     E  	mov rc,a
 147  0036  0700     R  	mov a,_intToStr_2[0]
 147  0037  0080     E  	mov _builtin_holtek_udivmodhi4_2[0],a
 147  0038  0700     R  	mov a,_intToStr_2[1]
 147  0039  0080     E  	mov _builtin_holtek_udivmodhi4_2[1],a
 147  003A  0F0A        	mov a,10
 147  003B  0080     E  	mov _builtin_holtek_udivmodhi4_2[2],a
 147  003C  0F00        	mov a,0
 147  003D  0080     E  	mov _builtin_holtek_udivmodhi4_2[3],a
 147  003E              	fcall _builtin_holtek_divmodhi4
 147  0045  0700     E  	mov a,_builtin_holtek_udivmodhi4_2[4]
 147  0046  0080     R  	mov _intToStr_2[16],a
 147  0047  0700     E  	mov a,_builtin_holtek_udivmodhi4_2[5]
 147  0048  0080     R  	mov _intToStr_2[17],a
 147  0049  0700     R  	mov a,_intToStr_2[16]
 147  004A  0B30        	add a,48
 147  004B  0080     E  	mov ra,a
 147  004C  0FFF        	mov a,255
 147  004D  0300     E  	add a,rb
 147  004E  0083        	mov mp,a
 147  004F  0FFF        	mov a,255
 147  0050  1300     E  	adc a,rc
 147  0051  0084        	mov sbp,a
 147  0052  0700     E  	mov a,ra
 147  0053  0082        	mov ir,a
 148  0054              #line 148 "c:\users\icetz\onedrive\文件\htk_project\uart\UART.c"
 148  0054  0700     R  	mov a,_intToStr_2[0]
 148  0055  0080     E  	mov _builtin_holtek_udivmodhi4_2[0],a
 148  0056  0700     R  	mov a,_intToStr_2[1]
 148  0057  0080     E  	mov _builtin_holtek_udivmodhi4_2[1],a
 148  0058  0F0A        	mov a,10
 148  0059  0080     E  	mov _builtin_holtek_udivmodhi4_2[2],a
 148  005A  0F00        	mov a,0
 148  005B  0080     E  	mov _builtin_holtek_udivmodhi4_2[3],a
 148  005C              	fcall _builtin_holtek_divmodhi4
 148  0063  0700     E  	mov a,_builtin_holtek_udivmodhi4_2[0]
 148  0064  0080     E  	mov rb,a
 148  0065  0700     E  	mov a,_builtin_holtek_udivmodhi4_2[1]
 148  0066  0080     E  	mov rc,a
 148  0067  0700     E  	mov a,rb
 148  0068  0080     R  	mov _intToStr_2[0],a
 148  0069  0700     E  	mov a,rc
 148  006A  0080     R  	mov _intToStr_2[1],a
 145  006B              #line 145 "c:\users\icetz\onedrive\文件\htk_project\uart\UART.c"
 145  006B  0700     E  	mov a,rb
 145  006C  0500     E  	or a,rc
 145  006D  390A        	snz z
 145  006E  2800     R  	jmp _L28
 147  006F              #line 147 "c:\users\icetz\onedrive\文件\htk_project\uart\UART.c"
"File: UART.c        Assembler  Version HGASM0202      Page 11

 147  006F  0700     E  	mov a,rd
 147  0070  0080     R  	mov _intToStr_2[18],a
 147  0071  0700     E  	mov a,re
 147  0072  0080     R  	mov _intToStr_2[19],a
 147  0073  0700     R  	mov a,_intToStr_2[14]
 147  0074  0080     E  	mov rb,a
 147  0075  0700     R  	mov a,_intToStr_2[15]
 147  0076  0080     E  	mov rc,a
 147  0077  0F00     R  	mov a,low offset _intToStr_2
 147  0078  0080     E  	mov rf,a
 147  0079  0F00     R  	mov a,high offset _intToStr_2
 147  007A  0080     E  	mov rg,a
 147  007B  0F04        	mov a,4
 147  007C  0300     E  	add a,rf
 147  007D  0080     R  	mov _intToStr_2[16],a
 147  007E  0F00        	mov a,0
 147  007F  1300     E  	adc a,rg
 147  0080  0080     R  	mov _intToStr_2[17],a
 147  0081              _L27:
 154  0081              #line 154 "c:\users\icetz\onedrive\文件\htk_project\uart\UART.c"
 154  0081  0FFF        	mov a,255
 154  0082  0380     E  	addm a,rd
 154  0083  0FFF        	mov a,255
 154  0084  1380     E  	adcm a,re
 154  0085  0700     E  	mov a,rd
 154  0086  0300     R  	add a,_intToStr_2[16]
 154  0087  0083        	mov mp,a
 154  0088  0700     E  	mov a,re
 154  0089  1300     R  	adc a,_intToStr_2[17]
 154  008A  0084        	mov sbp,a
 154  008B              	fcall _Crom2Prom
 154  0092  0080     E  	mov ra,a
 154  0093  0700     E  	mov a,rb
 154  0094  0300     R  	add a,_intToStr_2[2]
 154  0095  0083        	mov mp,a
 154  0096  0700     E  	mov a,rc
 154  0097  1300     R  	adc a,_intToStr_2[3]
 154  0098  0084        	mov sbp,a
 154  0099  0700     E  	mov a,ra
 154  009A  0082        	mov ir,a
 154  009B  1480     E  	inc rb
 154  009C  3D0A        	sz z
 154  009D  1480     E  	inc rc
 152  009E              #line 152 "c:\users\icetz\onedrive\文件\htk_project\uart\UART.c"
 152  009E  0700     E  	mov a,rd
 152  009F  0500     E  	or a,re
 152  00A0  390A        	snz z
 152  00A1  2800     R  	jmp _L27
 157  00A2              #line 157 "c:\users\icetz\onedrive\文件\htk_project\uart\UART.c"
 157  00A2  0700     R  	mov a,_intToStr_2[14]
 157  00A3  0300     R  	add a,_intToStr_2[2]
 157  00A4  0080     E  	mov rb,a
 157  00A5  0700     R  	mov a,_intToStr_2[15]
 157  00A6  1300     R  	adc a,_intToStr_2[3]
 157  00A7  0080     E  	mov rc,a
 157  00A8  0700     R  	mov a,_intToStr_2[18]
 157  00A9  0300     E  	add a,rb
 157  00AA  0083        	mov mp,a
 157  00AB  0700     R  	mov a,_intToStr_2[19]
 157  00AC  1300     E  	adc a,rc
"File: UART.c        Assembler  Version HGASM0202      Page 12

 157  00AD  0084        	mov sbp,a
 157  00AE              _L31:
 157  00AE  0F00        	mov a,0
 157  00AF  0082        	mov ir,a
 157  00B0              #pragma debug scope 11 10
 157  00B0              #pragma debug scope 10 1
 160  00B0              #line 160 "c:\users\icetz\onedrive\文件\htk_project\uart\UART.c"
 160  00B0  0700     R  	mov a,_intToStr_2[2]
 160  00B1  0080     E  	mov ra,a
 160  00B2  0700     R  	mov a,_intToStr_2[3]
 160  00B3  0080     E  	mov rb,a
 160  00B4  0003        	ret
 160  00B5              _intToStr endp
 160  00B5              #line 160 "c:\users\icetz\onedrive\文件\htk_project\uart\UART.c"
 160  00B5              #pragma debug scope 1 1
 160  0000              @crom	.section 'crom'
 160  0000              _LC0:
 160  0000              	db 049h,06eh,076h,061h,06ch,069h,064h,020h,066h,06fh
 160  0005              	db 072h,06dh,061h,074h,021h,0dh,0ah,00h
 160  0009              @crom	.section 'crom'
 160  0009              _LC1:
 160  0009              	db 041h,054h,02bh,050h,057h,04dh,03dh,00h
 160  000D              @crom	.section 'crom'
 160  000D              _LC2:
 160  000D              	db 050h,057h,04dh,020h,076h,061h,06ch,075h,065h,020h
 160  0012              	db 073h,065h,074h,021h,0dh,0ah,00h
 160  0016              @crom	.section 'crom'
 160  0016              _LC3:
 160  0016              	db 041h,054h,02bh,050h,057h,052h,03dh,00h
 160  001A              @crom	.section 'crom'
 160  001A              _LC4:
 160  001A              	db 050h,06fh,077h,065h,072h,020h,076h,061h,06ch,075h
 160  001F              	db 065h,020h,073h,065h,074h,021h,0dh,0ah,00h
 160  0023              @crom	.section 'crom'
 160  0023              _LC5:
 160  0023              	db 041h,054h,02bh,056h,045h,052h,03dh,00h
 160  0027              @crom	.section 'crom'
 160  0027              _LC6:
 160  0027              	db 056h,065h,072h,073h,069h,06fh,06eh,020h,076h,061h
 160  002C              	db 06ch,075h,065h,020h,073h,065h,074h,021h,0dh,0ah
 160  0031              	db 00h
 160  0032              @crom	.section 'crom'
 160  0032              _LC7:
 160  0032              	db 041h,054h,02bh,043h,04dh,044h,03fh,00h
 160  0036              @crom	.section 'crom'
 160  0036              _LC8:
 160  0036              	db 050h,057h,04dh,03ah,020h,00h
 160  0039              @crom	.section 'crom'
 160  0039              _LC9:
 160  0039              	db 02ch,020h,050h,057h,052h,03ah,020h,00h
 160  003D              @crom	.section 'crom'
 160  003D              _LC10:
 160  003D              	db 02ch,020h,056h,045h,052h,03ah,020h,00h
 160  0041              @crom	.section 'crom'
 160  0041              _LC11:
 160  0041              	db 0dh,0ah,00h
 160  0042              @crom	.section 'crom'
 160  0042              _LC12:
 160  0042              	db 055h,06eh,06bh,06eh,06fh,077h,06eh,020h,063h,06fh
 160  0047              	db 06dh,06dh,061h,06eh,064h,021h,0dh,0ah,00h
"File: UART.c        Assembler  Version HGASM0202      Page 13

 160  004C              public _handleATCommand
 160  004C              #pragma debug scope 13 1
 170  004C              #line 170 "c:\users\icetz\onedrive\文件\htk_project\uart\UART.c"
 170  0000              _handleATCommand .section 'code'
 170  0000              _handleATCommand proc
 170  0000              public _handleATCommand_2
 170  0000  0034[           local _handleATCommand_2 db 52 dup(?)	; 2,50
            00
            ]
 170  0034              #pragma debug pointer 46 7 13
 170  0034              #pragma debug pointer 46 7 13
 170  0034              #pragma debug variable 46 13 _handleATCommand_2+0 "cmd"
 170  0034              #pragma debug array 47 7 50 13
 170  0034              #pragma debug array 47 7 50 13
 170  0034              #pragma debug variable 47 13 _handleATCommand_2+2 "response"
 172  0034              #line 172 "c:\users\icetz\onedrive\文件\htk_project\uart\UART.c"
 172  0000  0F23        	mov a,35
 172  0001  0080     E  	mov _strchr_2[2],a
 172  0002  1F00     E  	clr _strchr_2[3]
 172  0003  0700     R  	mov a,_handleATCommand_2[0]
 172  0004  0080     E  	mov _strchr_2[0],a
 172  0005  0700     R  	mov a,_handleATCommand_2[1]
 172  0006  0080     E  	mov _strchr_2[1],a
 172  0007              	fcall _strchr
 173  000E              #line 173 "c:\users\icetz\onedrive\文件\htk_project\uart\UART.c"
 173  000E  0700     E  	mov a,ra
 173  000F  0500     E  	or a,rb
 173  0010  390A        	snz z
 173  0011  2800     R  	jmp _L33
 175  0012              #line 175 "c:\users\icetz\onedrive\文件\htk_project\uart\UART.c"
 175  0012  0F00     R  	mov a,low offset _LC0
 175  0013  0080     R  	mov _send_buff_2[0],a
 175  0014  0F00     R  	mov a,high offset _LC0
 175  0015  0080     R  	mov _send_buff_2[1],a
 175  0016  2800     R  	jmp _L40
 175  0017              _L33:
 179  0017              #line 179 "c:\users\icetz\onedrive\文件\htk_project\uart\UART.c"
 179  0017  0700     E  	mov a,ra
 179  0018  0083        	mov mp,a
 179  0019  0700     E  	mov a,rb
 179  001A  0084        	mov sbp,a
 179  001B  0F00        	mov a,0
 179  001C  0082        	mov ir,a
 181  001D              #line 181 "c:\users\icetz\onedrive\文件\htk_project\uart\UART.c"
 181  001D  0F07        	mov a,7
 181  001E  0080     E  	mov _strncmp_2[4],a
 181  001F  1F00     E  	clr _strncmp_2[5]
 181  0020  0F00     R  	mov a,low offset _LC1
 181  0021  0080     E  	mov _strncmp_2[2],a
 181  0022  0F00     R  	mov a,high offset _LC1
 181  0023  0080     E  	mov _strncmp_2[3],a
 181  0024  0700     R  	mov a,_handleATCommand_2[0]
 181  0025  0080     E  	mov _strncmp_2[0],a
 181  0026  0700     R  	mov a,_handleATCommand_2[1]
 181  0027  0080     E  	mov _strncmp_2[1],a
 181  0028              	fcall _strncmp
 181  002F  0700     E  	mov a,ra
 181  0030  0500     E  	or a,rb
 181  0031  390A        	snz z
 181  0032  2800     R  	jmp _L35
"File: UART.c        Assembler  Version HGASM0202      Page 14

 183  0033              #line 183 "c:\users\icetz\onedrive\文件\htk_project\uart\UART.c"
 183  0033  0F07        	mov a,7
 183  0034  0300     R  	add a,_handleATCommand_2[0]
 183  0035  0080     E  	mov _atoi_2[0],a
 183  0036  0F00        	mov a,0
 183  0037  1300     R  	adc a,_handleATCommand_2[1]
 183  0038  0080     E  	mov _atoi_2[1],a
 183  0039              	fcall _atoi
 183  0040  0700     E  	mov a,ra
 183  0041  0080     R  	mov _pwm_value[0],a
 184  0042              #line 184 "c:\users\icetz\onedrive\文件\htk_project\uart\UART.c"
 184  0042  0F00     R  	mov a,low offset _LC2
 184  0043  0080     R  	mov _send_buff_2[0],a
 184  0044  0F00     R  	mov a,high offset _LC2
 184  0045  0080     R  	mov _send_buff_2[1],a
 184  0046  2800     R  	jmp _L40
 184  0047              _L35:
 186  0047              #line 186 "c:\users\icetz\onedrive\文件\htk_project\uart\UART.c"
 186  0047  0F07        	mov a,7
 186  0048  0080     E  	mov _strncmp_2[4],a
 186  0049  1F00     E  	clr _strncmp_2[5]
 186  004A  0F00     R  	mov a,low offset _LC3
 186  004B  0080     E  	mov _strncmp_2[2],a
 186  004C  0F00     R  	mov a,high offset _LC3
 186  004D  0080     E  	mov _strncmp_2[3],a
 186  004E  0700     R  	mov a,_handleATCommand_2[0]
 186  004F  0080     E  	mov _strncmp_2[0],a
 186  0050  0700     R  	mov a,_handleATCommand_2[1]
 186  0051  0080     E  	mov _strncmp_2[1],a
 186  0052              	fcall _strncmp
 186  0059  0700     E  	mov a,ra
 186  005A  0500     E  	or a,rb
 186  005B  390A        	snz z
 186  005C  2800     R  	jmp _L37
 188  005D              #line 188 "c:\users\icetz\onedrive\文件\htk_project\uart\UART.c"
 188  005D  0F07        	mov a,7
 188  005E  0300     R  	add a,_handleATCommand_2[0]
 188  005F  0080     E  	mov _atoi_2[0],a
 188  0060  0F00        	mov a,0
 188  0061  1300     R  	adc a,_handleATCommand_2[1]
 188  0062  0080     E  	mov _atoi_2[1],a
 188  0063              	fcall _atoi
 188  006A  0700     E  	mov a,ra
 188  006B  0080     R  	mov _pwr_value[0],a
 188  006C  0700     E  	mov a,rb
 188  006D  0080     R  	mov _pwr_value[1],a
 189  006E              #line 189 "c:\users\icetz\onedrive\文件\htk_project\uart\UART.c"
 189  006E  0F00     R  	mov a,low offset _LC4
 189  006F  0080     R  	mov _send_buff_2[0],a
 189  0070  0F00     R  	mov a,high offset _LC4
 189  0071  0080     R  	mov _send_buff_2[1],a
 189  0072  2800     R  	jmp _L40
 189  0073              _L37:
 191  0073              #line 191 "c:\users\icetz\onedrive\文件\htk_project\uart\UART.c"
 191  0073  0F07        	mov a,7
 191  0074  0080     E  	mov _strncmp_2[4],a
 191  0075  1F00     E  	clr _strncmp_2[5]
 191  0076  0F00     R  	mov a,low offset _LC5
 191  0077  0080     E  	mov _strncmp_2[2],a
 191  0078  0F00     R  	mov a,high offset _LC5
"File: UART.c        Assembler  Version HGASM0202      Page 15

 191  0079  0080     E  	mov _strncmp_2[3],a
 191  007A  0700     R  	mov a,_handleATCommand_2[0]
 191  007B  0080     E  	mov _strncmp_2[0],a
 191  007C  0700     R  	mov a,_handleATCommand_2[1]
 191  007D  0080     E  	mov _strncmp_2[1],a
 191  007E              	fcall _strncmp
 191  0085  0700     E  	mov a,ra
 191  0086  0500     E  	or a,rb
 191  0087  390A        	snz z
 191  0088  2800     R  	jmp _L38
 193  0089              #line 193 "c:\users\icetz\onedrive\文件\htk_project\uart\UART.c"
 193  0089  0F07        	mov a,7
 193  008A  0300     R  	add a,_handleATCommand_2[0]
 193  008B  0080     E  	mov _atoi_2[0],a
 193  008C  0F00        	mov a,0
 193  008D  1300     R  	adc a,_handleATCommand_2[1]
 193  008E  0080     E  	mov _atoi_2[1],a
 193  008F              	fcall _atoi
 193  0096  0700     E  	mov a,ra
 193  0097  0080     R  	mov _ver_value[0],a
 193  0098  0700     E  	mov a,rb
 193  0099  0080     R  	mov _ver_value[1],a
 194  009A              #line 194 "c:\users\icetz\onedrive\文件\htk_project\uart\UART.c"
 194  009A  0F00     R  	mov a,low offset _LC6
 194  009B  0080     R  	mov _send_buff_2[0],a
 194  009C  0F00     R  	mov a,high offset _LC6
 194  009D  0080     R  	mov _send_buff_2[1],a
 194  009E  2800     R  	jmp _L40
 194  009F              _L38:
 196  009F              #line 196 "c:\users\icetz\onedrive\文件\htk_project\uart\UART.c"
 196  009F  0F07        	mov a,7
 196  00A0  0080     E  	mov _strncmp_2[4],a
 196  00A1  1F00     E  	clr _strncmp_2[5]
 196  00A2  0F00     R  	mov a,low offset _LC7
 196  00A3  0080     E  	mov _strncmp_2[2],a
 196  00A4  0F00     R  	mov a,high offset _LC7
 196  00A5  0080     E  	mov _strncmp_2[3],a
 196  00A6  0700     R  	mov a,_handleATCommand_2[0]
 196  00A7  0080     E  	mov _strncmp_2[0],a
 196  00A8  0700     R  	mov a,_handleATCommand_2[1]
 196  00A9  0080     E  	mov _strncmp_2[1],a
 196  00AA              	fcall _strncmp
 196  00B1  0700     E  	mov a,ra
 196  00B2  0500     E  	or a,rb
 196  00B3  390A        	snz z
 196  00B4  2800     R  	jmp _L39
 199  00B5              #line 199 "c:\users\icetz\onedrive\文件\htk_project\uart\UART.c"
 199  00B5  0F00     R  	mov a,low offset _handleATCommand_2
 199  00B6  0080     E  	mov ra,a
 199  00B7  0F00     R  	mov a,high offset _handleATCommand_2
 199  00B8  0080     E  	mov rb,a
 199  00B9  0F02        	mov a,2
 199  00BA  0300     E  	add a,ra
 199  00BB  0080     R  	mov _intToStr_2[2],a
 199  00BC  0F00        	mov a,0
 199  00BD  1300     E  	adc a,rb
 199  00BE  0080     R  	mov _intToStr_2[3],a
 199  00BF  0700     R  	mov a,_pwm_value[0]
 199  00C0  0080     R  	mov _intToStr_2[0],a
 199  00C1  1F00     R  	clr _intToStr_2[1]
"File: UART.c        Assembler  Version HGASM0202      Page 16

 199  00C2              	fcall _intToStr
 200  00C9              #line 200 "c:\users\icetz\onedrive\文件\htk_project\uart\UART.c"
 200  00C9  0F00     R  	mov a,low offset _LC8
 200  00CA  0080     R  	mov _send_buff_2[0],a
 200  00CB  0F00     R  	mov a,high offset _LC8
 200  00CC  0080     R  	mov _send_buff_2[1],a
 200  00CD              	fcall _send_buff
 201  00D4              #line 201 "c:\users\icetz\onedrive\文件\htk_project\uart\UART.c"
 201  00D4  0F00     R  	mov a,low offset _handleATCommand_2
 201  00D5  0080     E  	mov ra,a
 201  00D6  0F00     R  	mov a,high offset _handleATCommand_2
 201  00D7  0080     E  	mov rb,a
 201  00D8  0F02        	mov a,2
 201  00D9  0300     E  	add a,ra
 201  00DA  0080     R  	mov _send_buff_2[0],a
 201  00DB  0F00        	mov a,0
 201  00DC  1300     E  	adc a,rb
 201  00DD  0080     R  	mov _send_buff_2[1],a
 201  00DE              	fcall _send_buff
 203  00E5              #line 203 "c:\users\icetz\onedrive\文件\htk_project\uart\UART.c"
 203  00E5  0F00     R  	mov a,low offset _LC9
 203  00E6  0080     R  	mov _send_buff_2[0],a
 203  00E7  0F00     R  	mov a,high offset _LC9
 203  00E8  0080     R  	mov _send_buff_2[1],a
 203  00E9              	fcall _send_buff
 204  00F0              #line 204 "c:\users\icetz\onedrive\文件\htk_project\uart\UART.c"
 204  00F0  0F00     R  	mov a,low offset _handleATCommand_2
 204  00F1  0080     E  	mov ra,a
 204  00F2  0F00     R  	mov a,high offset _handleATCommand_2
 204  00F3  0080     E  	mov rb,a
 204  00F4  0F02        	mov a,2
 204  00F5  0300     E  	add a,ra
 204  00F6  0080     R  	mov _intToStr_2[2],a
 204  00F7  0F00        	mov a,0
 204  00F8  1300     E  	adc a,rb
 204  00F9  0080     R  	mov _intToStr_2[3],a
 204  00FA  0700     R  	mov a,_pwr_value[0]
 204  00FB  0080     R  	mov _intToStr_2[0],a
 204  00FC  0700     R  	mov a,_pwr_value[1]
 204  00FD  0080     R  	mov _intToStr_2[1],a
 204  00FE              	fcall _intToStr
 205  0105              #line 205 "c:\users\icetz\onedrive\文件\htk_project\uart\UART.c"
 205  0105  0F00     R  	mov a,low offset _handleATCommand_2
 205  0106  0080     E  	mov ra,a
 205  0107  0F00     R  	mov a,high offset _handleATCommand_2
 205  0108  0080     E  	mov rb,a
 205  0109  0F02        	mov a,2
 205  010A  0300     E  	add a,ra
 205  010B  0080     R  	mov _send_buff_2[0],a
 205  010C  0F00        	mov a,0
 205  010D  1300     E  	adc a,rb
 205  010E  0080     R  	mov _send_buff_2[1],a
 205  010F              	fcall _send_buff
 207  0116              #line 207 "c:\users\icetz\onedrive\文件\htk_project\uart\UART.c"
 207  0116  0F00     R  	mov a,low offset _LC10
 207  0117  0080     R  	mov _send_buff_2[0],a
 207  0118  0F00     R  	mov a,high offset _LC10
 207  0119  0080     R  	mov _send_buff_2[1],a
 207  011A              	fcall _send_buff
 208  0121              #line 208 "c:\users\icetz\onedrive\文件\htk_project\uart\UART.c"
"File: UART.c        Assembler  Version HGASM0202      Page 17

 208  0121  0F00     R  	mov a,low offset _handleATCommand_2
 208  0122  0080     E  	mov ra,a
 208  0123  0F00     R  	mov a,high offset _handleATCommand_2
 208  0124  0080     E  	mov rb,a
 208  0125  0F02        	mov a,2
 208  0126  0300     E  	add a,ra
 208  0127  0080     R  	mov _intToStr_2[2],a
 208  0128  0F00        	mov a,0
 208  0129  1300     E  	adc a,rb
 208  012A  0080     R  	mov _intToStr_2[3],a
 208  012B  0700     R  	mov a,_ver_value[0]
 208  012C  0080     R  	mov _intToStr_2[0],a
 208  012D  0700     R  	mov a,_ver_value[1]
 208  012E  0080     R  	mov _intToStr_2[1],a
 208  012F              	fcall _intToStr
 209  0136              #line 209 "c:\users\icetz\onedrive\文件\htk_project\uart\UART.c"
 209  0136  0F00     R  	mov a,low offset _handleATCommand_2
 209  0137  0080     E  	mov ra,a
 209  0138  0F00     R  	mov a,high offset _handleATCommand_2
 209  0139  0080     E  	mov rb,a
 209  013A  0F02        	mov a,2
 209  013B  0300     E  	add a,ra
 209  013C  0080     R  	mov _send_buff_2[0],a
 209  013D  0F00        	mov a,0
 209  013E  1300     E  	adc a,rb
 209  013F  0080     R  	mov _send_buff_2[1],a
 209  0140              	fcall _send_buff
 211  0147              #line 211 "c:\users\icetz\onedrive\文件\htk_project\uart\UART.c"
 211  0147  0F00     R  	mov a,low offset _LC11
 211  0148  0080     R  	mov _send_buff_2[0],a
 211  0149  0F00     R  	mov a,high offset _LC11
 211  014A  0080     R  	mov _send_buff_2[1],a
 211  014B  2800     R  	jmp _L40
 211  014C              _L39:
 215  014C              #line 215 "c:\users\icetz\onedrive\文件\htk_project\uart\UART.c"
 215  014C  0F00     R  	mov a,low offset _LC12
 215  014D  0080     R  	mov _send_buff_2[0],a
 215  014E  0F00     R  	mov a,high offset _LC12
 215  014F  0080     R  	mov _send_buff_2[1],a
 215  0150              _L40:
 215  0150              	fcall _send_buff
 215  0157  0003        	ret
 215  0158              _handleATCommand endp
 215  0158              #line 215 "c:\users\icetz\onedrive\文件\htk_project\uart\UART.c"
 215  0158              #pragma debug scope 1 1
 215  0158              ___wdtc equ [62]
 215  004C              @crom	.section 'crom'
 215  004C              _LC13:
 215  004C              	db 043h,075h,072h,072h,065h,06eh,074h,020h,053h,070h
 215  0051              	db 065h,065h,064h,03ah,020h,00h
 215  0054              @crom	.section 'crom'
 215  0054              _LC14:
 215  0054              	db 020h,052h,050h,04dh,0dh,0ah,00h
 215  0057              @crom	.section 'crom'
 215  0057              _LC15:
 215  0057              	db 06dh,061h,067h,06eh,065h,074h,05fh,063h,06fh,075h
 215  005C              	db 06eh,074h,03ah,020h,00h
 215  005F              public _main
 215  005F              #pragma debug scope 14 1
 223  005F              #line 223 "c:\users\icetz\onedrive\文件\htk_project\uart\UART.c"
"File: UART.c        Assembler  Version HGASM0202      Page 18

 223  005F              IFDEF WITH_DEFAULT_STARTUP
 223  005F              extern _main_initial0:near
 223  005F              extern _main_startup:near
 223  005F              ENDIF
 223  005F              
 223  005F              ROMBANK 0 @start
 223  0000              @start .section com_l 'code'
 223  0000              _main_startup1:
 223  0000              @start .section com_e 'code'
 223  0000  0F00     R  	mov a,bank _main
 223  0001  008B        	mov bp,a
 223  0002  2800     R  	jmp _main
 223  0003              
 223  0000              _main .section 'code'
 223  0000              _main proc
 223  0000  0019[           local _main_2 db 25 dup(?)
            00
            ]
 223  0019              #pragma debug variable 14 14 _main_2+20 "speed"
 223  0019              #pragma debug variable 8 14 _main_2+24 "set_pwm"
 224  0019              #line 224 "c:\users\icetz\onedrive\文件\htk_project\uart\UART.c"
 224  0000  0FAF        	mov a,175
 224  0001  00BE        	mov [62],a
 225  0002              #line 225 "c:\users\icetz\onedrive\文件\htk_project\uart\UART.c"
 225  0002              	fcall _inituart
 226  0009              #line 226 "c:\users\icetz\onedrive\文件\htk_project\uart\UART.c"
 226  0009              	fcall _initpwm
 227  0010              #line 227 "c:\users\icetz\onedrive\文件\htk_project\uart\UART.c"
 227  0010              	fcall _initInt
 229  0017              #line 229 "c:\users\icetz\onedrive\文件\htk_project\uart\UART.c"
 229  0017  1F00     R  	clr _main_2[24]
 228  0018              #line 228 "c:\users\icetz\onedrive\文件\htk_project\uart\UART.c"
 228  0018  1F00     R  	clr _main_2[20]
 228  0019  1F00     R  	clr _main_2[21]
 228  001A  1F00     R  	clr _main_2[22]
 228  001B  1F00     R  	clr _main_2[23]
 228  001C              _L42:
 233  001C              #line 233 "c:\users\icetz\onedrive\文件\htk_project\uart\UART.c"
 233  001C  0F01        	mov a,1
 233  001D  0300     R  	add a,_timer_mark[0]
 233  001E  0080     E  	mov rd,a
 233  001F  0F00        	mov a,0
 233  0020  1300     R  	adc a,_timer_mark[1]
 233  0021  0080     E  	mov re,a
 233  0022  0F00        	mov a,0
 233  0023  1300     R  	adc a,_timer_mark[2]
 233  0024  0080     E  	mov rf,a
 233  0025  0F00        	mov a,0
 233  0026  1300     R  	adc a,_timer_mark[3]
 233  0027  0080     E  	mov rg,a
 233  0028  0700     E  	mov a,rd
 233  0029  0080     R  	mov _timer_mark[0],a
 233  002A  0700     E  	mov a,re
 233  002B  0080     R  	mov _timer_mark[1],a
 233  002C  0700     E  	mov a,rf
 233  002D  0080     R  	mov _timer_mark[2],a
 233  002E  0700     E  	mov a,rg
 233  002F  0080     R  	mov _timer_mark[3],a
 234  0030              #line 234 "c:\users\icetz\onedrive\文件\htk_project\uart\UART.c"
 234  0030  0F63        	mov a,99
"File: UART.c        Assembler  Version HGASM0202      Page 19

 234  0031  0200     E  	sub a,rd
 234  0032  0F00        	mov a,0
 234  0033  1200     E  	sbc a,re
 234  0034  0F00        	mov a,0
 234  0035  1200     E  	sbc a,rf
 234  0036  0F00        	mov a,0
 234  0037  1200     E  	sbc a,rg
 234  0038  3C0A        	sz c
 234  0039  2800     R  	jmp _L43
 234  003A              #pragma debug scope 15 14
 234  003A              ;begin block, line: 234.-1
 234  003A              #pragma debug array 48 7 10 15
 234  003A              #pragma debug array 48 7 10 15
 234  003A              #pragma debug variable 48 15 _main_2+10 "speed_str"
 234  003A              #pragma debug variable 48 15 _main_2+0 "count_str"
 238  003A              #line 238 "c:\users\icetz\onedrive\文件\htk_project\uart\UART.c"
 238  003A  0700     R  	mov a,_magnet_count[0]
 238  003B  0080     E  	mov rd,a
 238  003C  0700     R  	mov a,_magnet_count[1]
 238  003D  0080     E  	mov re,a
 238  003E  1F00     E  	clr rf
 238  003F  1F00     E  	clr rg
 238  0040  0700     E  	mov a,rd
 238  0041  0080     E  	mov _builtin_holtek_mulsi3_2[0],a
 238  0042  0700     E  	mov a,re
 238  0043  0080     E  	mov _builtin_holtek_mulsi3_2[1],a
 238  0044  0700     E  	mov a,rf
 238  0045  0080     E  	mov _builtin_holtek_mulsi3_2[2],a
 238  0046  0700     E  	mov a,rg
 238  0047  0080     E  	mov _builtin_holtek_mulsi3_2[3],a
 238  0048  0F60        	mov a,96
 238  0049  0080     E  	mov _builtin_holtek_mulsi3_2[4],a
 238  004A  0FEA        	mov a,234
 238  004B  0080     E  	mov _builtin_holtek_mulsi3_2[5],a
 238  004C  0F00        	mov a,0
 238  004D  0080     E  	mov _builtin_holtek_mulsi3_2[6],a
 238  004E  0F00        	mov a,0
 238  004F  0080     E  	mov _builtin_holtek_mulsi3_2[7],a
 238  0050              	fcall _builtin_holtek_mulsi3
 238  0057  0700     E  	mov a,_builtin_holtek_mulsi3_2[8]
 238  0058  0080     E  	mov rd,a
 238  0059  0700     E  	mov a,_builtin_holtek_mulsi3_2[9]
 238  005A  0080     E  	mov re,a
 238  005B  0700     E  	mov a,_builtin_holtek_mulsi3_2[10]
 238  005C  0080     E  	mov rf,a
 238  005D  0700     E  	mov a,_builtin_holtek_mulsi3_2[11]
 238  005E  0080     E  	mov rg,a
 238  005F  1B10        	rrca intc
 238  0060  3410        	clr intc.0
 238  0061  0700     E  	mov a,rd
 238  0062  00D9        	mov mduwr0,a
 238  0063  0700     E  	mov a,re
 238  0064  00DA        	mov mduwr1,a
 238  0065  0700     E  	mov a,rf
 238  0066  00DB        	mov mduwr2,a
 238  0067  0700     E  	mov a,rg
 238  0068  00DC        	mov mduwr3,a
 238  0069  0FE0        	mov a,224
 238  006A  00DD        	mov mduwr4,a
 238  006B  0F2E        	mov a,46
"File: UART.c        Assembler  Version HGASM0202      Page 20

 238  006C  00DE        	mov mduwr5,a
 238  006D  0F06        	mov a,6
 238  006E              _LI1:
 238  006E  1785        	sdz acc
 238  006F  2800     R  	jmp _LI1
 238  0070  0759        	mov a,mduwr0
 238  0071  0080     R  	mov _main_2[20],a
 238  0072  075A        	mov a,mduwr1
 238  0073  0080     R  	mov _main_2[21],a
 238  0074  075B        	mov a,mduwr2
 238  0075  0080     R  	mov _main_2[22],a
 238  0076  075C        	mov a,mduwr3
 238  0077  0080     R  	mov _main_2[23],a
 238  0078  3C0A        	sz c
 238  0079  3010        	set intc.0
 242  007A              #line 242 "c:\users\icetz\onedrive\文件\htk_project\uart\UART.c"
 242  007A  0F00     R  	mov a,low offset _main_2
 242  007B  0080     E  	mov ra,a
 242  007C  0F00     R  	mov a,high offset _main_2
 242  007D  0080     E  	mov rb,a
 242  007E  0F0A        	mov a,10
 242  007F  0300     E  	add a,ra
 242  0080  0080     R  	mov _intToStr_2[2],a
 242  0081  0F00        	mov a,0
 242  0082  1300     E  	adc a,rb
 242  0083  0080     R  	mov _intToStr_2[3],a
 242  0084  0700     R  	mov a,_main_2[20]
 242  0085  0080     R  	mov _intToStr_2[0],a
 242  0086  0700     R  	mov a,_main_2[21]
 242  0087  0080     R  	mov _intToStr_2[1],a
 242  0088              	fcall _intToStr
 245  008F              #line 245 "c:\users\icetz\onedrive\文件\htk_project\uart\UART.c"
 245  008F  0F00     R  	mov a,low offset _LC13
 245  0090  0080     R  	mov _send_buff_2[0],a
 245  0091  0F00     R  	mov a,high offset _LC13
 245  0092  0080     R  	mov _send_buff_2[1],a
 245  0093              	fcall _send_buff
 246  009A              #line 246 "c:\users\icetz\onedrive\文件\htk_project\uart\UART.c"
 246  009A  0F00     R  	mov a,low offset _main_2
 246  009B  0080     E  	mov ra,a
 246  009C  0F00     R  	mov a,high offset _main_2
 246  009D  0080     E  	mov rb,a
 246  009E  0F0A        	mov a,10
 246  009F  0300     E  	add a,ra
 246  00A0  0080     R  	mov _send_buff_2[0],a
 246  00A1  0F00        	mov a,0
 246  00A2  1300     E  	adc a,rb
 246  00A3  0080     R  	mov _send_buff_2[1],a
 246  00A4              	fcall _send_buff
 247  00AB              #line 247 "c:\users\icetz\onedrive\文件\htk_project\uart\UART.c"
 247  00AB  0F00     R  	mov a,low offset _LC14
 247  00AC  0080     R  	mov _send_buff_2[0],a
 247  00AD  0F00     R  	mov a,high offset _LC14
 247  00AE  0080     R  	mov _send_buff_2[1],a
 247  00AF              	fcall _send_buff
 251  00B6              #line 251 "c:\users\icetz\onedrive\文件\htk_project\uart\UART.c"
 251  00B6  0700     R  	mov a,_magnet_count[0]
 251  00B7  0080     R  	mov _intToStr_2[0],a
 251  00B8  0700     R  	mov a,_magnet_count[1]
 251  00B9  0080     R  	mov _intToStr_2[1],a
"File: UART.c        Assembler  Version HGASM0202      Page 21

 251  00BA  0F00     R  	mov a,low offset _main_2
 251  00BB  0080     R  	mov _intToStr_2[2],a
 251  00BC  0F00     R  	mov a,high offset _main_2
 251  00BD  0080     R  	mov _intToStr_2[3],a
 251  00BE              	fcall _intToStr
 254  00C5              #line 254 "c:\users\icetz\onedrive\文件\htk_project\uart\UART.c"
 254  00C5  0F00     R  	mov a,low offset _LC15
 254  00C6  0080     R  	mov _send_buff_2[0],a
 254  00C7  0F00     R  	mov a,high offset _LC15
 254  00C8  0080     R  	mov _send_buff_2[1],a
 254  00C9              	fcall _send_buff
 255  00D0              #line 255 "c:\users\icetz\onedrive\文件\htk_project\uart\UART.c"
 255  00D0  0F00     R  	mov a,low offset _main_2
 255  00D1  0080     R  	mov _send_buff_2[0],a
 255  00D2  0F00     R  	mov a,high offset _main_2
 255  00D3  0080     R  	mov _send_buff_2[1],a
 255  00D4              	fcall _send_buff
 256  00DB              #line 256 "c:\users\icetz\onedrive\文件\htk_project\uart\UART.c"
 256  00DB  0F00     R  	mov a,low offset _LC11
 256  00DC  0080     R  	mov _send_buff_2[0],a
 256  00DD  0F00     R  	mov a,high offset _LC11
 256  00DE  0080     R  	mov _send_buff_2[1],a
 256  00DF              	fcall _send_buff
 259  00E6              #line 259 "c:\users\icetz\onedrive\文件\htk_project\uart\UART.c"
 259  00E6  1F00     R  	clr _magnet_count[0]
 259  00E7  1F00     R  	clr _magnet_count[1]
 263  00E8              #line 263 "c:\users\icetz\onedrive\文件\htk_project\uart\UART.c"
 263  00E8  1F00     R  	clr _timer_mark[0]
 263  00E9  1F00     R  	clr _timer_mark[1]
 263  00EA  1F00     R  	clr _timer_mark[2]
 263  00EB  1F00     R  	clr _timer_mark[3]
 263  00EC              _L43:
 263  00EC              #pragma debug scope 14 1
 266  00EC              #line 266 "c:\users\icetz\onedrive\文件\htk_project\uart\UART.c"
 266  00EC  0F0A        	mov a,10
 266  00ED  0080     R  	mov _Delayms_2[0],a
 266  00EE  1F00     R  	clr _Delayms_2[1]
 266  00EF              	fcall _Delayms
 268  00F6              #line 268 "c:\users\icetz\onedrive\文件\htk_project\uart\UART.c"
 268  00F6  0FFF        	mov a,255
 268  00F7  0300     R  	add a,_main_2[20]
 268  00F8  0080     E  	mov rd,a
 268  00F9  0FFF        	mov a,255
 268  00FA  1300     R  	adc a,_main_2[21]
 268  00FB  0080     E  	mov re,a
 268  00FC  0FFF        	mov a,255
 268  00FD  1300     R  	adc a,_main_2[22]
 268  00FE  0080     E  	mov rf,a
 268  00FF  0FFF        	mov a,255
 268  0100  1300     R  	adc a,_main_2[23]
 268  0101  0080     E  	mov rg,a
 268  0102  0F04        	mov a,4
 268  0103  0200     E  	sub a,rd
 268  0104  0F00        	mov a,0
 268  0105  1200     E  	sbc a,re
 268  0106  0F00        	mov a,0
 268  0107  1200     E  	sbc a,rf
 268  0108  0F00        	mov a,0
 268  0109  1200     E  	sbc a,rg
 268  010A  380A        	snz c
"File: UART.c        Assembler  Version HGASM0202      Page 22

 268  010B  2800     R  	jmp _L44
 270  010C              #line 270 "c:\users\icetz\onedrive\文件\htk_project\uart\UART.c"
 270  010C  0F32        	mov a,50
 270  010D  0080     R  	mov _pwm_value[0],a
 270  010E  2800     R  	jmp _L45
 270  010F              _L44:
 272  010F              #line 272 "c:\users\icetz\onedrive\文件\htk_project\uart\UART.c"
 272  010F  0FFA        	mov a,250
 272  0110  0300     R  	add a,_main_2[20]
 272  0111  0080     E  	mov rd,a
 272  0112  0FFF        	mov a,255
 272  0113  1300     R  	adc a,_main_2[21]
 272  0114  0080     E  	mov re,a
 272  0115  0FFF        	mov a,255
 272  0116  1300     R  	adc a,_main_2[22]
 272  0117  0080     E  	mov rf,a
 272  0118  0FFF        	mov a,255
 272  0119  1300     R  	adc a,_main_2[23]
 272  011A  0080     E  	mov rg,a
 272  011B  0F04        	mov a,4
 272  011C  0200     E  	sub a,rd
 272  011D  0F00        	mov a,0
 272  011E  1200     E  	sbc a,re
 272  011F  0F00        	mov a,0
 272  0120  1200     E  	sbc a,rf
 272  0121  0F00        	mov a,0
 272  0122  1200     E  	sbc a,rg
 272  0123  380A        	snz c
 272  0124  2800     R  	jmp _L46
 274  0125              #line 274 "c:\users\icetz\onedrive\文件\htk_project\uart\UART.c"
 274  0125  0F50        	mov a,80
 274  0126  0080     R  	mov _pwm_value[0],a
 274  0127  2800     R  	jmp _L45
 274  0128              _L46:
 276  0128              #line 276 "c:\users\icetz\onedrive\文件\htk_project\uart\UART.c"
 276  0128  0FF5        	mov a,245
 276  0129  0300     R  	add a,_main_2[20]
 276  012A  0080     E  	mov rd,a
 276  012B  0FFF        	mov a,255
 276  012C  1300     R  	adc a,_main_2[21]
 276  012D  0080     E  	mov re,a
 276  012E  0FFF        	mov a,255
 276  012F  1300     R  	adc a,_main_2[22]
 276  0130  0080     E  	mov rf,a
 276  0131  0FFF        	mov a,255
 276  0132  1300     R  	adc a,_main_2[23]
 276  0133  0080     E  	mov rg,a
 276  0134  0F04        	mov a,4
 276  0135  0200     E  	sub a,rd
 276  0136  0F00        	mov a,0
 276  0137  1200     E  	sbc a,re
 276  0138  0F00        	mov a,0
 276  0139  1200     E  	sbc a,rf
 276  013A  0F00        	mov a,0
 276  013B  1200     E  	sbc a,rg
 276  013C  380A        	snz c
 276  013D  2800     R  	jmp _L47
 278  013E              #line 278 "c:\users\icetz\onedrive\文件\htk_project\uart\UART.c"
 278  013E  0F6E        	mov a,110
 278  013F  0080     R  	mov _pwm_value[0],a
"File: UART.c        Assembler  Version HGASM0202      Page 23

 278  0140  2800     R  	jmp _L45
 278  0141              _L47:
 280  0141              #line 280 "c:\users\icetz\onedrive\文件\htk_project\uart\UART.c"
 280  0141  0FF0        	mov a,240
 280  0142  0300     R  	add a,_main_2[20]
 280  0143  0080     E  	mov rd,a
 280  0144  0FFF        	mov a,255
 280  0145  1300     R  	adc a,_main_2[21]
 280  0146  0080     E  	mov re,a
 280  0147  0FFF        	mov a,255
 280  0148  1300     R  	adc a,_main_2[22]
 280  0149  0080     E  	mov rf,a
 280  014A  0FFF        	mov a,255
 280  014B  1300     R  	adc a,_main_2[23]
 280  014C  0080     E  	mov rg,a
 280  014D  0F04        	mov a,4
 280  014E  0200     E  	sub a,rd
 280  014F  0F00        	mov a,0
 280  0150  1200     E  	sbc a,re
 280  0151  0F00        	mov a,0
 280  0152  1200     E  	sbc a,rf
 280  0153  0F00        	mov a,0
 280  0154  1200     E  	sbc a,rg
 280  0155  380A        	snz c
 280  0156  2800     R  	jmp _L48
 282  0157              #line 282 "c:\users\icetz\onedrive\文件\htk_project\uart\UART.c"
 282  0157  0F8C        	mov a,140
 282  0158  0080     R  	mov _pwm_value[0],a
 282  0159  2800     R  	jmp _L45
 282  015A              _L48:
 284  015A              #line 284 "c:\users\icetz\onedrive\文件\htk_project\uart\UART.c"
 284  015A  0FEB        	mov a,235
 284  015B  0300     R  	add a,_main_2[20]
 284  015C  0080     E  	mov rd,a
 284  015D  0FFF        	mov a,255
 284  015E  1300     R  	adc a,_main_2[21]
 284  015F  0080     E  	mov re,a
 284  0160  0FFF        	mov a,255
 284  0161  1300     R  	adc a,_main_2[22]
 284  0162  0080     E  	mov rf,a
 284  0163  0FFF        	mov a,255
 284  0164  1300     R  	adc a,_main_2[23]
 284  0165  0080     E  	mov rg,a
 284  0166  0F04        	mov a,4
 284  0167  0200     E  	sub a,rd
 284  0168  0F00        	mov a,0
 284  0169  1200     E  	sbc a,re
 284  016A  0F00        	mov a,0
 284  016B  1200     E  	sbc a,rf
 284  016C  0F00        	mov a,0
 284  016D  1200     E  	sbc a,rg
 284  016E  380A        	snz c
 284  016F  2800     R  	jmp _L49
 286  0170              #line 286 "c:\users\icetz\onedrive\文件\htk_project\uart\UART.c"
 286  0170  0FAA        	mov a,170
 286  0171  0080     R  	mov _pwm_value[0],a
 286  0172  2800     R  	jmp _L45
 286  0173              _L49:
 288  0173              #line 288 "c:\users\icetz\onedrive\文件\htk_project\uart\UART.c"
 288  0173  0F19        	mov a,25
"File: UART.c        Assembler  Version HGASM0202      Page 24

 288  0174  0200     R  	sub a,_main_2[20]
 288  0175  0F00        	mov a,0
 288  0176  1200     R  	sbc a,_main_2[21]
 288  0177  0F00        	mov a,0
 288  0178  1200     R  	sbc a,_main_2[22]
 288  0179  0F00        	mov a,0
 288  017A  1200     R  	sbc a,_main_2[23]
 288  017B  3C0A        	sz c
 288  017C  2800     R  	jmp _L50
 290  017D              #line 290 "c:\users\icetz\onedrive\文件\htk_project\uart\UART.c"
 290  017D  0FC8        	mov a,200
 290  017E  0080     R  	mov _pwm_value[0],a
 290  017F  2800     R  	jmp _L45
 290  0180              _L50:
 294  0180              #line 294 "c:\users\icetz\onedrive\文件\htk_project\uart\UART.c"
 294  0180  1F00     R  	clr _pwm_value[0]
 294  0181              _L45:
 297  0181              #line 297 "c:\users\icetz\onedrive\文件\htk_project\uart\UART.c"
 297  0181  0700     R  	mov a,_pwm_value[0]
 297  0182  0200     R  	sub a,_main_2[24]
 297  0183  3C0A        	sz c
 297  0184  2800     R  	jmp _L51
 298  0185              #line 298 "c:\users\icetz\onedrive\文件\htk_project\uart\UART.c"
 298  0185  1580     R  	dec _main_2[24]
 298  0186  2800     R  	jmp _L52
 298  0187              _L51:
 302  0187              #line 302 "c:\users\icetz\onedrive\文件\htk_project\uart\UART.c"
 302  0187  1480     R  	inc _main_2[24]
 302  0188              _L52:
 304  0188              #line 304 "c:\users\icetz\onedrive\文件\htk_project\uart\UART.c"
 304  0188  0700     R  	mov a,_pwr_value[0]
 304  0189  0500     R  	or a,_pwr_value[1]
 304  018A  3D0A        	sz z
 304  018B  2800     R  	jmp _L53
 305  018C              #line 305 "c:\users\icetz\onedrive\文件\htk_project\uart\UART.c"
 305  018C  0700     R  	mov a,_main_2[24]
 305  018D  80B6 0001   	lmov [310],a
 305  018F  0700     R  	mov a,_main_2[24]
 305  0190  80B7 0001   	lmov [311],a
 305  0192  2800     R  	jmp _L42
 305  0193              _L53:
 309  0193              #line 309 "c:\users\icetz\onedrive\文件\htk_project\uart\UART.c"
 309  0193  9F36 0001   	lclr [310]
 309  0195  9F37 0001   	lclr [311]
 309  0197  2800     R  	jmp _L42
 309  0198  2800     R  	jmp $
 309  0199              _main endp
 309  0199              
 309  0199              @dummy endp
 309  0199              
 309  0199              #line 309 "c:\users\icetz\onedrive\文件\htk_project\uart\UART.c"
 309  0199              #pragma debug scope 1 1
 309  0199              public _UART0
 309  0199              #pragma debug scope 16 1
 317  0199              #line 317 "c:\users\icetz\onedrive\文件\htk_project\uart\UART.c"
 317  0199              rombank 0 @UART0_code
 317  0000              @UART0_code .section at 60 'code'
 317  0000  0080     E  	mov r1,a
 317  0001  070B        	mov a,bp
 317  0002  1F0B        	clr bp
"File: UART.c        Assembler  Version HGASM0202      Page 25

 317  0003  2800     R  	jmp _UART0
 317  0004              ROMBANK 0 _UART0
 317  0004              #pragma debug scope 1 1
 317  0004              @dummy60 endp
 317  0004              #pragma debug scope 17 1
 317  0000              _UART0 .section 'code'
 317  0000              _UART0 proc
 317  0000  0064[       local _UART0_2 db 100 dup(?)
            00
            ]
 317  0000  0080     E  	mov r2,a
 317  0001  070A        	mov a, status
 317  0002  0080     E  	mov r3,a
 317  0003  0703        	mov a,mp
 317  0004  0080     E  	mov r4,a
 317  0005  0704        	mov a,sbp
 317  0006  0080     E  	mov r5,a
 317  0007  0707        	mov a,tblp
 317  0008  0080     E  	mov r6,a
 317  0009  0709        	mov a,tbhp
 317  000A  0080     E  	mov r7,a
 317  000B              #pragma debug array 49 7 100 17
 317  000B              #pragma debug array 49 7 100 17
 317  000B              #pragma debug variable 49 17 _UART0_2+0 "buff"
 318  000B              #line 318 "c:\users\icetz\onedrive\文件\htk_project\uart\UART.c"
 318  000B  1F00     R  	clr _UART0_2[0]
 318  000C  1F00     R  	clr _UART0_2[1]
 318  000D  1F00     R  	clr _UART0_2[2]
 318  000E  1F00     R  	clr _UART0_2[3]
 318  000F  1F00     R  	clr _UART0_2[4]
 318  0010  1F00     R  	clr _UART0_2[5]
 318  0011  1F00     R  	clr _UART0_2[6]
 318  0012  1F00     R  	clr _UART0_2[7]
 318  0013  1F00     R  	clr _UART0_2[8]
 318  0014  1F00     R  	clr _UART0_2[9]
 318  0015  1F00     R  	clr _UART0_2[10]
 318  0016  1F00     R  	clr _UART0_2[11]
 318  0017  1F00     R  	clr _UART0_2[12]
 318  0018  1F00     R  	clr _UART0_2[13]
 318  0019  1F00     R  	clr _UART0_2[14]
 318  001A  1F00     R  	clr _UART0_2[15]
 318  001B  1F00     R  	clr _UART0_2[16]
 318  001C  1F00     R  	clr _UART0_2[17]
 318  001D  1F00     R  	clr _UART0_2[18]
 318  001E  1F00     R  	clr _UART0_2[19]
 318  001F  1F00     R  	clr _UART0_2[20]
 318  0020  1F00     R  	clr _UART0_2[21]
 318  0021  1F00     R  	clr _UART0_2[22]
 318  0022  1F00     R  	clr _UART0_2[23]
 318  0023  1F00     R  	clr _UART0_2[24]
 318  0024  1F00     R  	clr _UART0_2[25]
 318  0025  1F00     R  	clr _UART0_2[26]
 318  0026  1F00     R  	clr _UART0_2[27]
 318  0027  1F00     R  	clr _UART0_2[28]
 318  0028  1F00     R  	clr _UART0_2[29]
 318  0029  1F00     R  	clr _UART0_2[30]
 318  002A  1F00     R  	clr _UART0_2[31]
 318  002B  1F00     R  	clr _UART0_2[32]
 318  002C  1F00     R  	clr _UART0_2[33]
 318  002D  1F00     R  	clr _UART0_2[34]
"File: UART.c        Assembler  Version HGASM0202      Page 26

 318  002E  1F00     R  	clr _UART0_2[35]
 318  002F  1F00     R  	clr _UART0_2[36]
 318  0030  1F00     R  	clr _UART0_2[37]
 318  0031  1F00     R  	clr _UART0_2[38]
 318  0032  1F00     R  	clr _UART0_2[39]
 318  0033  1F00     R  	clr _UART0_2[40]
 318  0034  1F00     R  	clr _UART0_2[41]
 318  0035  1F00     R  	clr _UART0_2[42]
 318  0036  1F00     R  	clr _UART0_2[43]
 318  0037  1F00     R  	clr _UART0_2[44]
 318  0038  1F00     R  	clr _UART0_2[45]
 318  0039  1F00     R  	clr _UART0_2[46]
 318  003A  1F00     R  	clr _UART0_2[47]
 318  003B  1F00     R  	clr _UART0_2[48]
 318  003C  1F00     R  	clr _UART0_2[49]
 318  003D  1F00     R  	clr _UART0_2[50]
 318  003E  1F00     R  	clr _UART0_2[51]
 318  003F  1F00     R  	clr _UART0_2[52]
 318  0040  1F00     R  	clr _UART0_2[53]
 318  0041  1F00     R  	clr _UART0_2[54]
 318  0042  1F00     R  	clr _UART0_2[55]
 318  0043  1F00     R  	clr _UART0_2[56]
 318  0044  1F00     R  	clr _UART0_2[57]
 318  0045  1F00     R  	clr _UART0_2[58]
 318  0046  1F00     R  	clr _UART0_2[59]
 318  0047  1F00     R  	clr _UART0_2[60]
 318  0048  1F00     R  	clr _UART0_2[61]
 318  0049  1F00     R  	clr _UART0_2[62]
 318  004A  1F00     R  	clr _UART0_2[63]
 318  004B  1F00     R  	clr _UART0_2[64]
 318  004C  1F00     R  	clr _UART0_2[65]
 318  004D  1F00     R  	clr _UART0_2[66]
 318  004E  1F00     R  	clr _UART0_2[67]
 318  004F  1F00     R  	clr _UART0_2[68]
 318  0050  1F00     R  	clr _UART0_2[69]
 318  0051  1F00     R  	clr _UART0_2[70]
 318  0052  1F00     R  	clr _UART0_2[71]
 318  0053  1F00     R  	clr _UART0_2[72]
 318  0054  1F00     R  	clr _UART0_2[73]
 318  0055  1F00     R  	clr _UART0_2[74]
 318  0056  1F00     R  	clr _UART0_2[75]
 318  0057  1F00     R  	clr _UART0_2[76]
 318  0058  1F00     R  	clr _UART0_2[77]
 318  0059  1F00     R  	clr _UART0_2[78]
 318  005A  1F00     R  	clr _UART0_2[79]
 318  005B  1F00     R  	clr _UART0_2[80]
 318  005C  1F00     R  	clr _UART0_2[81]
 318  005D  1F00     R  	clr _UART0_2[82]
 318  005E  1F00     R  	clr _UART0_2[83]
 318  005F  1F00     R  	clr _UART0_2[84]
 318  0060  1F00     R  	clr _UART0_2[85]
 318  0061  1F00     R  	clr _UART0_2[86]
 318  0062  1F00     R  	clr _UART0_2[87]
 318  0063  1F00     R  	clr _UART0_2[88]
 318  0064  1F00     R  	clr _UART0_2[89]
 318  0065  1F00     R  	clr _UART0_2[90]
 318  0066  1F00     R  	clr _UART0_2[91]
 318  0067  1F00     R  	clr _UART0_2[92]
 318  0068  1F00     R  	clr _UART0_2[93]
 318  0069  1F00     R  	clr _UART0_2[94]
"File: UART.c        Assembler  Version HGASM0202      Page 27

 318  006A  1F00     R  	clr _UART0_2[95]
 318  006B  1F00     R  	clr _UART0_2[96]
 318  006C  1F00     R  	clr _UART0_2[97]
 318  006D  1F00     R  	clr _UART0_2[98]
 318  006E  1F00     R  	clr _UART0_2[99]
 319  006F              #line 319 "c:\users\icetz\onedrive\文件\htk_project\uart\UART.c"
 319  006F  0F0A        	mov a,10
 319  0070  0080     R  	mov _get_buff_2[2],a
 319  0071  0F00     R  	mov a,low offset _UART0_2
 319  0072  0080     R  	mov _get_buff_2[0],a
 319  0073  0F00     R  	mov a,high offset _UART0_2
 319  0074  0080     R  	mov _get_buff_2[1],a
 319  0075              	fcall _get_buff
 321  007C              #line 321 "c:\users\icetz\onedrive\文件\htk_project\uart\UART.c"
 321  007C  0F00     R  	mov a,low offset _UART0_2
 321  007D  0080     R  	mov _handleATCommand_2[0],a
 321  007E  0F00     R  	mov a,high offset _UART0_2
 321  007F  0080     R  	mov _handleATCommand_2[1],a
 321  0080              	fcall _handleATCommand
 323  0087              #line 323 "c:\users\icetz\onedrive\文件\htk_project\uart\UART.c"
 323  0087  3638        	clr [56].4
 323  0088  0700     E  	mov a,r2
 323  0089  008B        	mov bp,a
 323  008A  0700     E  	mov a,r3
 323  008B  008A        	mov status,a
 323  008C  0700     E  	mov a,r4
 323  008D  0083        	mov mp,a
 323  008E  0700     E  	mov a,r5
 323  008F  0084        	mov sbp,a
 323  0090  0700     E  	mov a,r6
 323  0091  0087        	mov tblp,a
 323  0092  0700     E  	mov a,r7
 323  0093  0089        	mov tbhp,a
 323  0094  1D05        	tabrdc acc
 323  0095  0700     E  	mov a,r1
 323  0096  0004        	reti
 323  0097              _UART0 endp
 323  0097              
 323  0097              #line 323 "c:\users\icetz\onedrive\文件\htk_project\uart\UART.c"
 323  0097              #pragma debug scope 1 1
 323  0097              public _ISR_Int0
 323  0097              #pragma debug scope 18 1
 327  0097              #line 327 "c:\users\icetz\onedrive\文件\htk_project\uart\UART.c"
 327  0097              rombank 0 @ISR_Int0_code
 327  0000              @ISR_Int0_code .section at 4 'code'
 327  0000  0080     E  	mov r1,a
 327  0001  070B        	mov a,bp
 327  0002  1F0B        	clr bp
 327  0003  2800     R  	jmp _ISR_Int0
 327  0004              ROMBANK 0 _ISR_Int0
 327  0004              #pragma debug scope 1 1
 327  0004              @dummy4 endp
 327  0004              #pragma debug scope 19 1
 327  0000              _ISR_Int0 .section 'code'
 327  0000              _ISR_Int0 proc
 327  0000  0080     E  	mov r2,a
 327  0001  070A        	mov a, status
 327  0002  0080     E  	mov r3,a
 329  0003              #line 329 "c:\users\icetz\onedrive\文件\htk_project\uart\UART.c"
 329  0003  3490        	clr [16].1
"File: UART.c        Assembler  Version HGASM0202      Page 28

 330  0004              #line 330 "c:\users\icetz\onedrive\文件\htk_project\uart\UART.c"
 330  0004  3010        	set [16].0
 333  0005              #line 333 "c:\users\icetz\onedrive\文件\htk_project\uart\UART.c"
 333  0005  3610        	clr [16].4
 334  0006              #line 334 "c:\users\icetz\onedrive\文件\htk_project\uart\UART.c"
 334  0006  3090        	set [16].1
 334  0007  0700     E  	mov a,r2
 334  0008  008B        	mov bp,a
 334  0009  0700     E  	mov a,r3
 334  000A  008A        	mov status,a
 334  000B  0700     E  	mov a,r1
 334  000C  0004        	reti
 334  000D              _ISR_Int0 endp
 334  000D              
 334  000D              #line 334 "c:\users\icetz\onedrive\文件\htk_project\uart\UART.c"
 334  000D              #pragma debug scope 1 1
 334  000D              public _ISR_Int1
 334  000D              #pragma debug scope 20 1
 338  000D              #line 338 "c:\users\icetz\onedrive\文件\htk_project\uart\UART.c"
 338  000D              rombank 0 @ISR_Int1_code
 338  0000              @ISR_Int1_code .section at 8 'code'
 338  0000  0080     E  	mov r1,a
 338  0001  070B        	mov a,bp
 338  0002  1F0B        	clr bp
 338  0003  2800     R  	jmp _ISR_Int1
 338  0004              ROMBANK 0 _ISR_Int1
 338  0004              #pragma debug scope 1 1
 338  0004              @dummy8 endp
 338  0004              #pragma debug scope 21 1
 338  0000              _ISR_Int1 .section 'code'
 338  0000              _ISR_Int1 proc
 338  0000  0080     E  	mov r2,a
 338  0001  070A        	mov a, status
 338  0002  0080     E  	mov r3,a
 339  0003              #line 339 "c:\users\icetz\onedrive\文件\htk_project\uart\UART.c"
 339  0003  3510        	clr [16].2
 340  0004              #line 340 "c:\users\icetz\onedrive\文件\htk_project\uart\UART.c"
 340  0004  3010        	set [16].0
 344  0005              #line 344 "c:\users\icetz\onedrive\文件\htk_project\uart\UART.c"
 344  0005  1480     R  	inc _magnet_count[0]
 344  0006  3D0A        	sz z
 344  0007  1480     R  	inc _magnet_count[1]
 345  0008              #line 345 "c:\users\icetz\onedrive\文件\htk_project\uart\UART.c"
 345  0008  3690        	clr [16].5
 346  0009              #line 346 "c:\users\icetz\onedrive\文件\htk_project\uart\UART.c"
 346  0009  3110        	set [16].2
 346  000A  0700     E  	mov a,r2
 346  000B  008B        	mov bp,a
 346  000C  0700     E  	mov a,r3
 346  000D  008A        	mov status,a
 346  000E  0700     E  	mov a,r1
 346  000F  0004        	reti
 346  0010              _ISR_Int1 endp
 346  0010              
 346  0010              #line 346 "c:\users\icetz\onedrive\文件\htk_project\uart\UART.c"
 346  0010              #pragma debug scope 1 1
 346  0010              public _timer_mark
 346  0000              @HCCINIT	.section 'data'
  36  0000              #line 36 "c:\users\icetz\onedrive\文件\htk_project\uart\UART.c"
  36  0000              @HCCINIT_timer_mark .section 'data'
"File: UART.c        Assembler  Version HGASM0202      Page 29

  36  0000              _timer_mark label byte
  36  0000              #pragma debug variable 14 1 _timer_mark "timer_mark"
  36  0000              	db 0
  36  0000              @ROMDATA_BASE .section inpage 'code'
  36  0000              	db 0
  36  0001              @HCCINIT_timer_mark .section 'data'
  36  0001              	db 0
  36  0001              @ROMDATA_BASE .section inpage 'code'
  36  0001              	db 0
  36  0002              @HCCINIT_timer_mark .section 'data'
  36  0002              	db 0
  36  0001              @ROMDATA_BASE .section inpage 'code'
  36  0001              	db 0
  36  0003              @HCCINIT_timer_mark .section 'data'
  36  0003              	db 0
  36  0002              @ROMDATA_BASE .section inpage 'code'
  36  0002              	db 0
  36  0004              @HCCINIT_timer_mark .section 'data'
  36  0004              public _last_magnet_count
  35  0004              #line 35 "c:\users\icetz\onedrive\文件\htk_project\uart\UART.c"
  35  0000              @HCCINIT_last_magnet_count .section 'data'
  35  0000              _last_magnet_count label byte
  35  0000              #pragma debug variable 10 1 _last_magnet_count "last_magnet_count"
  35  0000              	db 0
  35  0002              @ROMDATA_BASE .section inpage 'code'
  35  0002              	db 0
  35  0001              @HCCINIT_last_magnet_count .section 'data'
  35  0001              	db 0
  35  0003              @ROMDATA_BASE .section inpage 'code'
  35  0003              	db 0
  35  0002              @HCCINIT_last_magnet_count .section 'data'
  35  0002              public _magnet_count
  34  0002              #line 34 "c:\users\icetz\onedrive\文件\htk_project\uart\UART.c"
  34  0000              @HCCINIT_magnet_count .section 'data'
  34  0000              _magnet_count label byte
  34  0000              #pragma debug variable 10 1 _magnet_count "magnet_count"
  34  0000              	db 0
  34  0003              @ROMDATA_BASE .section inpage 'code'
  34  0003              	db 0
  34  0001              @HCCINIT_magnet_count .section 'data'
  34  0001              	db 0
  34  0004              @ROMDATA_BASE .section inpage 'code'
  34  0004              	db 0
  34  0002              @HCCINIT_magnet_count .section 'data'
  34  0002              public _ver_value
  20  0002              #line 20 "c:\users\icetz\onedrive\文件\htk_project\uart\UART.c"
  20  0000              @HCCINIT_ver_value .section 'data'
  20  0000              _ver_value label byte
  20  0000              #pragma debug variable 10 1 _ver_value "ver_value"
  20  0000              	db 0
  20  0004              @ROMDATA_BASE .section inpage 'code'
  20  0004              	db 0
  20  0001              @HCCINIT_ver_value .section 'data'
  20  0001              	db 0
  20  0005              @ROMDATA_BASE .section inpage 'code'
  20  0005              	db 0
  20  0002              @HCCINIT_ver_value .section 'data'
  20  0002              public _pwr_value
  19  0002              #line 19 "c:\users\icetz\onedrive\文件\htk_project\uart\UART.c"
  19  0000              @HCCINIT_pwr_value .section 'data'
"File: UART.c        Assembler  Version HGASM0202      Page 30

  19  0000              _pwr_value label byte
  19  0000              #pragma debug variable 10 1 _pwr_value "pwr_value"
  19  0000              	dw 1
  19  0005              @ROMDATA_BASE .section inpage 'code'
  19  0005  0001        	dc 1
  19  0002              @HCCINIT_pwr_value .section 'data'
  19  0002              public _pwm_value
  18  0002              #line 18 "c:\users\icetz\onedrive\文件\htk_project\uart\UART.c"
  18  0000              @HCCINIT_pwm_value .section 'data'
  18  0000              _pwm_value label byte
  18  0000              #pragma debug variable 8 1 _pwm_value "pwm_value"
  18  0000              	db 100
  18  0006              @ROMDATA_BASE .section inpage 'code'
  18  0006              	db 100
  18  0001              @HCCINIT_pwm_value .section 'data'
  18  0001              #pragma debug struct_end
  18  0001              #pragma debug struct_end
  18  0001              #pragma debug union_end
  18  0001              #pragma debug union_end
  18  0001              #pragma debug variable 51 1 ___intc0 "__intc0" 1
  18  0001              #pragma debug struct_end
  18  0001              #pragma debug struct_end
  18  0001              #pragma debug union_end
  18  0001              #pragma debug union_end
  18  0001              #pragma debug variable 53 1 ___intc3 "__intc3" 1
  18  0001              #pragma debug struct_end
  18  0001              #pragma debug struct_end
  18  0001              #pragma debug union_end
  18  0001              #pragma debug union_end
  18  0001              #pragma debug variable 55 1 ___pac "__pac" 1
  18  0001              #pragma debug struct_end
  18  0001              #pragma debug struct_end
  18  0001              #pragma debug union_end
  18  0001              #pragma debug union_end
  18  0001              #pragma debug variable 57 1 ___papu "__papu" 1
  18  0001              #pragma debug struct_end
  18  0001              #pragma debug struct_end
  18  0001              #pragma debug union_end
  18  0001              #pragma debug union_end
  18  0001              #pragma debug variable 59 1 ___mfi5 "__mfi5" 1
  18  0001              #pragma debug struct_end
  18  0001              #pragma debug struct_end
  18  0001              #pragma debug union_end
  18  0001              #pragma debug union_end
  18  0001              #pragma debug variable 61 1 ___integ "__integ" 1
  18  0001              #pragma debug struct_end
  18  0001              #pragma debug struct_end
  18  0001              #pragma debug union_end
  18  0001              #pragma debug union_end
  18  0001              #pragma debug variable 63 1 ___wdtc "__wdtc" 1
  18  0001              #pragma debug struct_end
  18  0001              #pragma debug struct_end
  18  0001              #pragma debug union_end
  18  0001              #pragma debug union_end
  18  0001              #pragma debug variable 65 1 ___u0sr "__u0sr" 1
  18  0001              #pragma debug struct_end
  18  0001              #pragma debug struct_end
  18  0001              #pragma debug union_end
  18  0001              #pragma debug union_end
  18  0001              #pragma debug variable 67 1 ___u0cr1 "__u0cr1" 1
"File: UART.c        Assembler  Version HGASM0202      Page 31

  18  0001              #pragma debug struct_end
  18  0001              #pragma debug struct_end
  18  0001              #pragma debug union_end
  18  0001              #pragma debug union_end
  18  0001              #pragma debug variable 69 1 ___u0cr2 "__u0cr2" 1
  18  0001              #pragma debug variable 8 1 ___txr_rxr0 "__txr_rxr0" 1
  18  0001              #pragma debug variable 8 1 ___brg0 "__brg0" 1
  18  0001              #pragma debug struct_end
  18  0001              #pragma debug struct_end
  18  0001              #pragma debug union_end
  18  0001              #pragma debug union_end
  18  0001              #pragma debug variable 71 1 ___ptm2c0 "__ptm2c0" 1
  18  0001              #pragma debug struct_end
  18  0001              #pragma debug struct_end
  18  0001              #pragma debug union_end
  18  0001              #pragma debug union_end
  18  0001              #pragma debug variable 73 1 ___ptm2c1 "__ptm2c1" 1
  18  0001              #pragma debug variable 8 1 ___ptm2al "__ptm2al" 1
  18  0001              #pragma debug variable 8 1 ___ptm2ah "__ptm2ah" 1
  18  0001              #pragma debug struct_end
  18  0001              #pragma debug struct_end
  18  0001              #pragma debug union_end
  18  0001              #pragma debug union_end
  18  0001              #pragma debug variable 75 1 ___ptm2rpl "__ptm2rpl" 1
  18  0001              #pragma debug struct_end
  18  0001              #pragma debug struct_end
  18  0001              #pragma debug union_end
  18  0001              #pragma debug union_end
  18  0001              #pragma debug variable 77 1 ___ptm2rph "__ptm2rph" 1
  18  0001              #pragma debug struct_end
  18  0001              #pragma debug struct_end
  18  0001              #pragma debug union_end
  18  0001              #pragma debug union_end
  18  0001              #pragma debug variable 79 1 ___ptm3c0 "__ptm3c0" 1
  18  0001              #pragma debug struct_end
  18  0001              #pragma debug struct_end
  18  0001              #pragma debug union_end
  18  0001              #pragma debug union_end
  18  0001              #pragma debug variable 81 1 ___ptm3c1 "__ptm3c1" 1
  18  0001              #pragma debug variable 8 1 ___ptm3al "__ptm3al" 1
  18  0001              #pragma debug variable 8 1 ___ptm3ah "__ptm3ah" 1
  18  0001              #pragma debug struct_end
  18  0001              #pragma debug struct_end
  18  0001              #pragma debug union_end
  18  0001              #pragma debug union_end
  18  0001              #pragma debug variable 83 1 ___ptm3rpl "__ptm3rpl" 1
  18  0001              #pragma debug struct_end
  18  0001              #pragma debug struct_end
  18  0001              #pragma debug union_end
  18  0001              #pragma debug union_end
  18  0001              #pragma debug variable 85 1 ___ptm3rph "__ptm3rph" 1
  18  0001              #pragma debug struct_end
  18  0001              #pragma debug struct_end
  18  0001              #pragma debug union_end
  18  0001              #pragma debug union_end
  18  0001              #pragma debug variable 87 1 ___stm1c0 "__stm1c0" 1
  18  0001              #pragma debug struct_end
  18  0001              #pragma debug struct_end
  18  0001              #pragma debug union_end
  18  0001              #pragma debug union_end
"File: UART.c        Assembler  Version HGASM0202      Page 32

  18  0001              #pragma debug variable 89 1 ___stm1c1 "__stm1c1" 1
  18  0001              #pragma debug variable 8 1 ___stm1al "__stm1al" 1
  18  0001              #pragma debug variable 8 1 ___stm1ah "__stm1ah" 1
  18  0001              #pragma debug struct_end
  18  0001              #pragma debug struct_end
  18  0001              #pragma debug union_end
  18  0001              #pragma debug union_end
  18  0001              #pragma debug variable 91 1 ___stm1rp "__stm1rp" 1
  18  0001              #pragma debug struct_end
  18  0001              #pragma debug struct_end
  18  0001              #pragma debug union_end
  18  0001              #pragma debug union_end
  18  0001              #pragma debug variable 93 1 ___pas1 "__pas1" 1
  18  0001              #pragma debug struct_end
  18  0001              #pragma debug struct_end
  18  0001              #pragma debug union_end
  18  0001              #pragma debug union_end
  18  0001              #pragma debug variable 95 1 ___pds0 "__pds0" 1
  18  0001              #pragma debug struct_end
  18  0001              #pragma debug struct_end
  18  0001              #pragma debug union_end
  18  0001              #pragma debug union_end
  18  0001              #pragma debug variable 97 1 ___pds1 "__pds1" 1
  18  0001              extern r1:byte
  18  0001              extern r2:byte
  18  0001              extern r3:byte
  18  0001              extern r4:byte
  18  0001              extern r5:byte
  18  0001              extern r6:byte
  18  0001              extern r7:byte
 223  0001              #line 223 "c:\users\icetz\onedrive\文件\htk_project\uart\UART.c"
 223  0000              @code .section at 0 'code'
 223  0000  1F0B        	clr bp
 223  0001  2800     R  	jmp _main_startup1
 223  0002              
 223  0002              extern _builtin_holtek_divmodhi4:near
 223  0002              extern _builtin_holtek_udivmodhi4_2:byte
 223  0002              extern _builtin_holtek_udivmodhi4:near
 223  0002              extern _strchr_2:byte
 223  0002              extern _strchr:near
 223  0002              extern _strncmp_2:byte
 223  0002              extern _strncmp:near
 223  0002              extern _atoi_2:byte
 223  0002              extern _atoi:near
 223  0002              extern _builtin_holtek_mulsi3_2:byte
 223  0002              extern _builtin_holtek_mulsi3:near
 223  0002              extern _builtin_holtek_udivmodsi4_2:byte
 223  0002              extern _builtin_holtek_udivmodsi4:near
 223  0002              
 223  0002              ; 
 223  0002              ; Generated by holtek-gcc v3.19, Wed Nov 08 15:33:33 2023
 223  0002              ; Rebuild 718
 223  0002              ; end of file


        0 Errors, 0