"File: UART.c        Assembler  Version HGASM0202      Page 1


   1  0000              ; Generated by holtek-gcc v3.19, Mon Oct 30 21:46:16 2023
   2  0000              ; 
   3  0000              ; Configuration:
   4  0000              ;       with long instruction
   5  0000              ;       Multi-ROM, Multi-RAM
   6  0000              ;       bits_per_rom_unit:16
   7  0000              ;       with mp1
   8  0000              ;       with tbhp, address(0x9)
   9  0000              ;          Use tabrd-const
  10  0000              ;       
  11  0000              ; SFR address of long-instruction arch:
  12  0000              ;    mp0 = -1,1,0
  13  0000              ;    mp1 = 4,3,2
  14  0000              ;    mp2 = 14,13,12
  15  0000              ;    tbp = 9,7,8
  16  0000              ;    acc = 5
  17  0000              ;    pcl = 6
  18  0000              ;    status = 10
  19  0000              ;    bp = 11
  20  0000              ;    intc = 16
  21  0000              ;       
  22  0000              ;       
  23  0000              ; use 'tabrdc' instead of 'tabrd'
  24  0000              ;       
  25  0000              
  26  0000              #pragma translator "holtek-gcc 4.6.4" "3.19" "build 20130711"
  27  0000              ; Rebuild 718
  28  0000              
  29  0000              ir equ [2]
  30  0000              mp equ [3]
  31  0000              sbp equ [4]
  32  0000              acc equ [5]
  33  0000              bp equ [11]
  34  0000              tblp equ [7]
  35  0000              tbhp equ [9]
  36  0000              status equ [10]
  37  0000              c equ [10].0
  38  0000              ac equ [10].1
  39  0000              z equ [10].2
  40  0000              ov equ [10].3
  41  0000              cz equ [10].6
  42  0000              sc equ [10].7
  43  0000              intc equ [16]
  44  0000              mduwr0 equ [59h]
  45  0000              mduwr1 equ [5ah]
  46  0000              mduwr2 equ [5bh]
  47  0000              mduwr3 equ [5ch]
  48  0000              mduwr4 equ [5dh]
  49  0000              mduwr5 equ [5eh]
  50  0000              mduwrctrl equ [5fh]
  51  0000              
  52  0000              extern ra:byte
  53  0000              extern rb:byte
  54  0000              extern rc:byte
  55  0000              extern rd:byte
  56  0000              extern re:byte
  57  0000              extern rf:byte
  58  0000              extern rg:byte
  59  0000              extern rh:byte
"File: UART.ASM      Assembler  Version HGASM0202      Page 2

  60  0000              extern _Crom2Prom:near
  61  0000              extern _Crom2PromNext:near
  62  0000              
  63  0000              RAMBANK 0 @BITDATASEC, @BITDATASEC1
  64  0000              @HCCINIT	.section 'data'
  65  0000              @HCCINIT0	.section 'data'
  66  0000              @BITDATASEC	 .section 'data'
  67  0000              @BITDATASEC1	 .section 'data'
  68  0000              
  69  0000              #pragma debug scope 1 1
  70  0000              	extern __DELAY3:near
  71  0000              	extern __DELAYX3:near
  72  0000              	extern __DELAYX6:near
  73  0000              	extern __DELAYY5:near
  74  0000              	extern __DELAYY3:near
  75  0000              	extern _builtin_holtek_delay_2:byte
  76  0000              public _Delayms
  77  0000              #pragma debug scope 2 1

   7  0000              #line 7 "C:\Users\icetz\OneDrive\文件\HTK_Project\UART\UART.c"
   7  0000              _Delayms .section 'code'
   7  0000              _Delayms proc
   7  0000              public _Delayms_2
   7  0000  0002[           local _Delayms_2 db 2 dup(?)	; 2,0
            00
            ]
   7  0002              #pragma debug variable 10 2 _Delayms_2+0 "del"
   8  0002              #line 8 "C:\Users\icetz\OneDrive\文件\HTK_Project\UART\UART.c"
   8  0000  1F00     E  	clr rb
   8  0001  1F00     E  	clr rc
   8  0002  2800     R  	jmp _L2
   8  0003              _L3:
   8  0003              #line 8 "C:\Users\icetz\OneDrive\文件\HTK_Project\UART\UART.c"
   8  0003              ;# 8 "C:\Users\icetz\OneDrive\文件\HTK_Project\UART\UART.c" 1
   8  0003              	IF 2000>263690
   8  0003              ;# 8 "C:\Users\icetz\OneDrive\文件\HTK_Project\UART\UART.c" 1
   8  0003              	ERRMESSAGE 'the value 2000of the argument exceeds the maxinum 263690'
   8  0003              	ENDIF
   8  0003              ;# 8 "C:\Users\icetz\OneDrive\文件\HTK_Project\UART\UART.c" 1
   8  0003              	IF 2000<0
   8  0003              ;# 8 "C:\Users\icetz\OneDrive\文件\HTK_Project\UART\UART.c" 1
   8  0003              	ERRMESSAGE 'the value 2000 of the argument exceeds the mininum 0'
   8  0003              	ENDIF
   8  0003              ;# 8 "C:\Users\icetz\OneDrive\文件\HTK_Project\UART\UART.c" 1
   8  0003              	IF 2000==0
   8  0003              ;# 8 "C:\Users\icetz\OneDrive\文件\HTK_Project\UART\UART.c" 1
   8  0003              	JMP $
   8  0003              	ENDIF
   8  0003              ;# 8 "C:\Users\icetz\OneDrive\文件\HTK_Project\UART\UART.c" 1
   8  0003              	IF (2000>=1) AND (2000<( 4 + __PBP__ * 2))
   8  0003              ;# 8 "C:\Users\icetz\OneDrive\文件\HTK_Project\UART\UART.c" 1
   8  0003              	NOP
   8  0003              	ENDIF
   8  0003              ;# 8 "C:\Users\icetz\OneDrive\文件\HTK_Project\UART\UART.c" 1
   8  0003              	IF (2000>=2) AND (2000<( 4 + __PBP__ * 2))
   8  0003              ;# 8 "C:\Users\icetz\OneDrive\文件\HTK_Project\UART\UART.c" 1
   8  0003              	NOP
   8  0003              	ENDIF
   8  0003              ;# 8 "C:\Users\icetz\OneDrive\文件\HTK_Project\UART\UART.c" 1
   8  0003              	IF (2000>=3) AND (2000<( 4 + __PBP__ * 2))
"File: UART.c        Assembler  Version HGASM0202      Page 3

   8  0003              ;# 8 "C:\Users\icetz\OneDrive\文件\HTK_Project\UART\UART.c" 1
   8  0003              	NOP
   8  0003              	ENDIF
   8  0003              ;# 8 "C:\Users\icetz\OneDrive\文件\HTK_Project\UART\UART.c" 1
   8  0003              	IF (2000>=4) AND (2000<( 4 + __PBP__ * 2)) AND ( __PBP__ > 0 )
   8  0003              ;# 8 "C:\Users\icetz\OneDrive\文件\HTK_Project\UART\UART.c" 1
   8  0003              	NOP
   8  0003              	ENDIF
   8  0003              ;# 8 "C:\Users\icetz\OneDrive\文件\HTK_Project\UART\UART.c" 1
   8  0003              	IF (2000>=5) AND (2000<( 4 + __PBP__ * 2)) AND ( __PBP__ > 0 )
   8  0003              ;# 8 "C:\Users\icetz\OneDrive\文件\HTK_Project\UART\UART.c" 1
   8  0003              	NOP
   8  0003              	ENDIF
   8  0003              ;# 8 "C:\Users\icetz\OneDrive\文件\HTK_Project\UART\UART.c" 1
   8  0003              	IF (2000>=6) AND (2000<( 4 + __PBP__ * 2))  AND ( __PBP__ > 1 )
   8  0003              ;# 8 "C:\Users\icetz\OneDrive\文件\HTK_Project\UART\UART.c" 1
   8  0003              	NOP
   8  0003              	ENDIF
   8  0003              ;# 8 "C:\Users\icetz\OneDrive\文件\HTK_Project\UART\UART.c" 1
   8  0003              	IF (2000>=7) AND (2000<( 4 + __PBP__ * 2))  AND ( __PBP__ > 1 )
   8  0003              ;# 8 "C:\Users\icetz\OneDrive\文件\HTK_Project\UART\UART.c" 1
   8  0003              	NOP
   8  0003              	ENDIF
   8  0003              ;# 8 "C:\Users\icetz\OneDrive\文件\HTK_Project\UART\UART.c" 1
   8  0003              	IF (2000>=8) AND (2000<( 4 + __PBP__ * 2))  AND ( __PBP__ > 2 )
   8  0003              ;# 8 "C:\Users\icetz\OneDrive\文件\HTK_Project\UART\UART.c" 1
   8  0003              	NOP
   8  0003              	ENDIF
   8  0003              ;# 8 "C:\Users\icetz\OneDrive\文件\HTK_Project\UART\UART.c" 1
   8  0003              	IF (2000==9)  AND ( __PBP__ > 2 )
   8  0003              ;# 8 "C:\Users\icetz\OneDrive\文件\HTK_Project\UART\UART.c" 1
   8  0003              	NOP
   8  0003              	ENDIF
   8  0003              ;# 8 "C:\Users\icetz\OneDrive\文件\HTK_Project\UART\UART.c" 1
   8  0003              	IF (2000< ( 8 + __PBP__ * 2)) AND (2000>( 3 + __PBP__ * 2))
   8  0003              ;# 8 "C:\Users\icetz\OneDrive\文件\HTK_Project\UART\UART.c" 1
   8  0003              	fcall __DELAY3 + ( 7 + __PBP__ * 2) -2000
   8  0003              	ENDIF
   8  0003              ;# 8 "C:\Users\icetz\OneDrive\文件\HTK_Project\UART\UART.c" 1
   8  0003              	IF (2000< ( 0404h + __PBP__ * 2)) AND (2000>( 7 + __PBP__ * 2))
   8  0003              ;# 8 "C:\Users\icetz\OneDrive\文件\HTK_Project\UART\UART.c" 1
   8  0003              	MOV A,(2000-( 4 + __PBP__ * 2))/4
   8  0003              ;# 8 "C:\Users\icetz\OneDrive\文件\HTK_Project\UART\UART.c" 1
   8  0003              	fcall __DELAYX3 + 3 -((2000-( 4 + __PBP__ * 2)) MOD 4) 
   8  0003              	ENDIF
   8  0003              ;# 8 "C:\Users\icetz\OneDrive\文件\HTK_Project\UART\UART.c" 1
   8  0003              	IF (2000< ( 040bh + __PBP__ * 2)) AND (2000> ( 0403h + __PBP__ * 2))
   8  0003              ;# 8 "C:\Users\icetz\OneDrive\文件\HTK_Project\UART\UART.c" 1
   8  0003              	MOV A,0 
   8  0003              ;# 8 "C:\Users\icetz\OneDrive\文件\HTK_Project\UART\UART.c" 1
   8  0003              	fcall __DELAYX6 + ( 040ah + __PBP__ * 2) -2000
   8  0003              	ENDIF
   8  0003              ;# 8 "C:\Users\icetz\OneDrive\文件\HTK_Project\UART\UART.c" 1
   8  0003              	IF (2000 >= ( 040bh + __PBP__ * 2)) AND ((((2000-( 9 + __PBP__ * 2))%0402h)/4+1)>256)
   8  0003              ;# 8 "C:\Users\icetz\OneDrive\文件\HTK_Project\UART\UART.c" 1
   8  0003              	MOV A,(2000-( 9 + __PBP__ * 2))/0402h
   8  0003              ;# 8 "C:\Users\icetz\OneDrive\文件\HTK_Project\UART\UART.c" 1
   8  0003              	MOV _builtin_holtek_delay_2,A
   8  0003              ;# 8 "C:\Users\icetz\OneDrive\文件\HTK_Project\UART\UART.c" 1
   8  0003              	MOV A,0
"File: UART.c        Assembler  Version HGASM0202      Page 4

   8  0003              ;# 8 "C:\Users\icetz\OneDrive\文件\HTK_Project\UART\UART.c" 1
   8  0003              	fcall __DELAYY5 +5- (((2000-( 9 + __PBP__ * 2))%0402h)%6) 
   8  0003              	ENDIF
   8  0003              ;# 8 "C:\Users\icetz\OneDrive\文件\HTK_Project\UART\UART.c" 1
   8  0003              	IF (2000 >= ( 040bh + __PBP__ * 2)) AND ((((2000-( 9 + __PBP__ * 2))%0402h)/4+1)<=256)
   8  0003              ;# 8 "C:\Users\icetz\OneDrive\文件\HTK_Project\UART\UART.c" 1
   8  0003  0F01        	MOV A,(2000-( 9 + __PBP__ * 2))/0402h
   8  0004              ;# 8 "C:\Users\icetz\OneDrive\文件\HTK_Project\UART\UART.c" 1
   8  0004  0080     E  	MOV _builtin_holtek_delay_2,A
   8  0005              ;# 8 "C:\Users\icetz\OneDrive\文件\HTK_Project\UART\UART.c" 1
   8  0005  0FF0        	MOV A,((2000-( 9 + __PBP__ * 2))%0402h)/4+1
   8  0006              ;# 8 "C:\Users\icetz\OneDrive\文件\HTK_Project\UART\UART.c" 1
   8  0006              	fcall __DELAYY3 +3-(((2000-( 9 + __PBP__ * 2))%0402h)%4) 
   8  000D              	ENDIF
   8  000D  1480     E  	inc rb
   8  000E  3D0A        	sz z
   8  000F  1480     E  	inc rc
   8  0010              _L2:
   8  0010  0700     E  	mov a,rb
   8  0011  0200     R  	sub a,_Delayms_2[0]
   8  0012  0700     E  	mov a,rc
   8  0013  1200     R  	sbc a,_Delayms_2[1]
   8  0014  3B0A        	snz cz
   8  0015  2800     R  	jmp _L3
   8  0016  0003        	ret
   8  0017              _Delayms endp
   8  0017              #line 8 "C:\Users\icetz\OneDrive\文件\HTK_Project\UART\UART.c"
   8  0017              #pragma debug scope 1 1
   8  0017              ___txr_rxr0 equ [275]
   8  0017              ___u0sr equ [272]
   8  0017              public _send_char
   8  0017              #pragma debug scope 3 1
  12  0017              #line 12 "C:\Users\icetz\OneDrive\文件\HTK_Project\UART\UART.c"
  12  0000              _send_char .section 'code'
  12  0000              _send_char proc
  12  0000  00              local _send_char_2 db 1 dup(?)	; 0,1
  12  0000  0080     E  	mov ra,a
  12  0001  0080     R  	mov _send_char_2[0],a
  12  0002              #pragma debug variable 7 3 _send_char_2+0 "s"
  13  0002              #line 13 "C:\Users\icetz\OneDrive\文件\HTK_Project\UART\UART.c"
  13  0002  0700     E  	mov a,ra
  13  0003  8093 0001   	lmov [275],a
  13  0005              _L7:
  14  0005              #line 14 "C:\Users\icetz\OneDrive\文件\HTK_Project\UART\UART.c"
  14  0005  B810 0001   	lsnz [272].0
  14  0007  2800     R  	jmp _L7
  14  0008  0003        	ret
  14  0009              _send_char endp
  14  0009              #line 14 "C:\Users\icetz\OneDrive\文件\HTK_Project\UART\UART.c"
  14  0009              #pragma debug scope 1 1
  14  0009              public _send_buff
  14  0009              #pragma debug scope 4 1
  18  0009              #line 18 "C:\Users\icetz\OneDrive\文件\HTK_Project\UART\UART.c"
  18  0000              _send_buff .section 'code'
  18  0000              _send_buff proc
  18  0000              public _send_buff_2
  18  0000  0002[           local _send_buff_2 db 2 dup(?)	; 2,0
            00
            ]
  18  0002              #pragma debug pointer 42 7 4
"File: UART.c        Assembler  Version HGASM0202      Page 5

  18  0002              #pragma debug pointer 42 7 4
  18  0002              #pragma debug variable 42 4 _send_buff_2+0 "s"
  19  0002              #line 19 "C:\Users\icetz\OneDrive\文件\HTK_Project\UART\UART.c"
  19  0000  2800     R  	jmp _L9
  19  0001              _L10:
  21  0001              #line 21 "C:\Users\icetz\OneDrive\文件\HTK_Project\UART\UART.c"
  21  0001  0700     E  	mov a,ra
  21  0002              	fcall _send_char
  22  0009              #line 22 "C:\Users\icetz\OneDrive\文件\HTK_Project\UART\UART.c"
  22  0009  1480     R  	inc _send_buff_2[0]
  22  000A  3D0A        	sz z
  22  000B  1480     R  	inc _send_buff_2[1]
  22  000C              _L9:
  19  000C              #line 19 "C:\Users\icetz\OneDrive\文件\HTK_Project\UART\UART.c"
  19  000C  0700     R  	mov a,_send_buff_2[0]
  19  000D  0083        	mov mp,a
  19  000E  0700     R  	mov a,_send_buff_2[1]
  19  000F  0084        	mov sbp,a
  19  0010              	fcall _Crom2Prom
  19  0017  0080     E  	mov ra,a
  19  0018  1080     E  	sz ra
  19  0019  2800     R  	jmp _L10
  19  001A  0003        	ret
  19  001B              _send_buff endp
  19  001B              #line 19 "C:\Users\icetz\OneDrive\文件\HTK_Project\UART\UART.c"
  19  001B              #pragma debug scope 1 1
  19  001B              ___wdtc equ [62]
  19  001B              ___pas1 equ [334]
  19  001B              ___u0cr1 equ [273]
  19  001B              ___u0cr2 equ [274]
  19  001B              ___brg0 equ [276]
  19  001B              ___mfi5 equ [56]
  19  001B              ___intc3 equ [19]
  19  001B              ___intc0 equ [16]
  19  001B              public _inituart
  19  001B              #pragma debug scope 5 1
  26  001B              #line 26 "C:\Users\icetz\OneDrive\文件\HTK_Project\UART\UART.c"
  26  0000              _inituart .section 'code'
  26  0000              _inituart proc
  27  0000              #line 27 "C:\Users\icetz\OneDrive\文件\HTK_Project\UART\UART.c"
  27  0000  0FAF        	mov a,175
  27  0001  00BE        	mov [62],a
  28  0002              #line 28 "C:\Users\icetz\OneDrive\文件\HTK_Project\UART\UART.c"
  28  0002  0FC0        	mov a,192
  28  0003  80CE 0001   	lmov [334],a
  29  0005              #line 29 "C:\Users\icetz\OneDrive\文件\HTK_Project\UART\UART.c"
  29  0005  0F80        	mov a,128
  29  0006  8091 0001   	lmov [273],a
  30  0008              #line 30 "C:\Users\icetz\OneDrive\文件\HTK_Project\UART\UART.c"
  30  0008  0FE4        	mov a,228
  30  0009  8092 0001   	lmov [274],a
  31  000B              #line 31 "C:\Users\icetz\OneDrive\文件\HTK_Project\UART\UART.c"
  31  000B  0F19        	mov a,25
  31  000C  8094 0001   	lmov [276],a
  32  000E              #line 32 "C:\Users\icetz\OneDrive\文件\HTK_Project\UART\UART.c"
  32  000E  3038        	set [56].0
  33  000F              #line 33 "C:\Users\icetz\OneDrive\文件\HTK_Project\UART\UART.c"
  33  000F  3193        	set [19].3
  34  0010              #line 34 "C:\Users\icetz\OneDrive\文件\HTK_Project\UART\UART.c"
  34  0010  3010        	set [16].0
"File: UART.c        Assembler  Version HGASM0202      Page 6

  34  0011  0003        	ret
  34  0012              _inituart endp
  34  0012              #line 34 "C:\Users\icetz\OneDrive\文件\HTK_Project\UART\UART.c"
  34  0012              #pragma debug scope 1 1
  34  0012              public _get_buff
  34  0012              #pragma debug scope 6 1
  37  0012              #line 37 "C:\Users\icetz\OneDrive\文件\HTK_Project\UART\UART.c"
  37  0000              _get_buff .section 'code'
  37  0000              _get_buff proc
  37  0000              public _get_buff_2
  37  0000  0003[           local _get_buff_2 db 3 dup(?)	; 3,0
            00
            ]
  37  0003              #pragma debug pointer 43 7 6
  37  0003              #pragma debug pointer 43 7 6
  37  0003              #pragma debug variable 43 6 _get_buff_2+0 "rbuff"
  37  0003              #pragma debug variable 7 6 _get_buff_2+2 "c"
  38  0003              #line 38 "C:\Users\icetz\OneDrive\文件\HTK_Project\UART\UART.c"
  38  0000  1F00     E  	clr rb
  38  0001  1F00     E  	clr rc
  38  0002              _L14:
  41  0002              #line 41 "C:\Users\icetz\OneDrive\文件\HTK_Project\UART\UART.c"
  41  0002  B910 0001   	lsnz [272].2
  41  0004  2800     R  	jmp _L14
  42  0005              #line 42 "C:\Users\icetz\OneDrive\文件\HTK_Project\UART\UART.c"
  42  0005  8713 0001   	lmov a,[275]
  42  0007  0080     E  	mov ra,a
  45  0008              #line 45 "C:\Users\icetz\OneDrive\文件\HTK_Project\UART\UART.c"
  45  0008  0700     E  	mov a,rb
  45  0009  0300     R  	add a,_get_buff_2[0]
  45  000A  0083        	mov mp,a
  45  000B  0700     E  	mov a,rc
  45  000C  1300     R  	adc a,_get_buff_2[1]
  45  000D  0084        	mov sbp,a
  43  000E              #line 43 "C:\Users\icetz\OneDrive\文件\HTK_Project\UART\UART.c"
  43  000E  0700     E  	mov a,ra
  43  000F  0200     R  	sub a,_get_buff_2[2]
  43  0010  3D0A        	sz z
  43  0011  2800     R  	jmp _L18
  48  0012              #line 48 "C:\Users\icetz\OneDrive\文件\HTK_Project\UART\UART.c"
  48  0012  0700     E  	mov a,ra
  48  0013  0082        	mov ir,a
  49  0014              #line 49 "C:\Users\icetz\OneDrive\文件\HTK_Project\UART\UART.c"
  49  0014  1480     E  	inc rb
  49  0015  3D0A        	sz z
  49  0016  1480     E  	inc rc
  50  0017              #line 50 "C:\Users\icetz\OneDrive\文件\HTK_Project\UART\UART.c"
  50  0017  2800     R  	jmp _L14
  50  0018              _L18:
  45  0018              #line 45 "C:\Users\icetz\OneDrive\文件\HTK_Project\UART\UART.c"
  45  0018  0F00        	mov a,0
  45  0019  0082        	mov ir,a
  51  001A              #line 51 "C:\Users\icetz\OneDrive\文件\HTK_Project\UART\UART.c"
  51  001A  0700     E  	mov a,rb
  51  001B  0080     E  	mov ra,a
  51  001C  0700     E  	mov a,rc
  51  001D  0080     E  	mov rb,a
  51  001E  0003        	ret
  51  001F              _get_buff endp
  51  001F              #line 51 "C:\Users\icetz\OneDrive\文件\HTK_Project\UART\UART.c"
"File: UART.c        Assembler  Version HGASM0202      Page 7

  51  001F              #pragma debug scope 1 1
  51  001F              public _main
  51  001F              #pragma debug scope 7 1
  53  001F              #line 53 "C:\Users\icetz\OneDrive\文件\HTK_Project\UART\UART.c"
  53  001F              IFDEF WITH_DEFAULT_STARTUP
  53  001F              extern _main_initial0:near
  53  001F              extern _main_startup:near
  53  001F              ENDIF
  53  001F              
  53  001F              ROMBANK 0 @start
  53  0000              @start .section com_l 'code'
  53  0000              _main_startup1:
  53  0000              @start .section com_e 'code'
  53  0000  0F00     R  	mov a,bank _main
  53  0001  008B        	mov bp,a
  53  0002  2800     R  	jmp _main
  53  0003              
  53  0000              _main .section 'code'
  53  0000              _main proc
  54  0000              #line 54 "C:\Users\icetz\OneDrive\文件\HTK_Project\UART\UART.c"
  54  0000              	fcall _inituart
  54  0007              _L20:
  57  0007              #line 57 "C:\Users\icetz\OneDrive\文件\HTK_Project\UART\UART.c"
  57  0007  0F2E        	mov a,46
  57  0008              	fcall _send_char
  58  000F              #line 58 "C:\Users\icetz\OneDrive\文件\HTK_Project\UART\UART.c"
  58  000F  0FF4        	mov a,-12
  58  0010  0080     R  	mov _Delayms_2[0],a
  58  0011  0F01        	mov a,1
  58  0012  0080     R  	mov _Delayms_2[1],a
  58  0013              	fcall _Delayms
  58  001A  2800     R  	jmp _L20
  58  001B  2800     R  	jmp $
  58  001C              _main endp
  58  001C              
  58  001C              @dummy endp
  58  001C              
  58  001C              #line 58 "C:\Users\icetz\OneDrive\文件\HTK_Project\UART\UART.c"
  58  001C              #pragma debug scope 1 1
  58  001C              public _UART0
  58  001C              #pragma debug scope 8 1
  63  001C              #line 63 "C:\Users\icetz\OneDrive\文件\HTK_Project\UART\UART.c"
  63  001C              rombank 0 @UART0_code
  63  0000              @UART0_code .section at 60 'code'
  63  0000  0080     E  	mov r1,a
  63  0001  070B        	mov a,bp
  63  0002  1F0B        	clr bp
  63  0003  2800     R  	jmp _UART0
  63  0004              ROMBANK 0 _UART0
  63  0004              #pragma debug scope 1 1
  63  0004              @dummy60 endp
  63  0004              #pragma debug scope 9 1
  63  0000              _UART0 .section 'code'
  63  0000              _UART0 proc
  63  0000  0064[       local _UART0_2 db 100 dup(?)
            00
            ]
  63  0000  0080     E  	mov r2,a
  63  0001  070A        	mov a, status
  63  0002  0080     E  	mov r3,a
"File: UART.c        Assembler  Version HGASM0202      Page 8

  63  0003  0703        	mov a,mp
  63  0004  0080     E  	mov r4,a
  63  0005  0704        	mov a,sbp
  63  0006  0080     E  	mov r5,a
  63  0007  0707        	mov a,tblp
  63  0008  0080     E  	mov r6,a
  63  0009  0709        	mov a,tbhp
  63  000A  0080     E  	mov r7,a
  63  000B              #pragma debug array 44 7 100 9
  63  000B              #pragma debug array 44 7 100 9
  63  000B              #pragma debug variable 44 9 _UART0_2+0 "buff"
  64  000B              #line 64 "C:\Users\icetz\OneDrive\文件\HTK_Project\UART\UART.c"
  64  000B  1F00     R  	clr _UART0_2[0]
  64  000C  1F00     R  	clr _UART0_2[1]
  64  000D  1F00     R  	clr _UART0_2[2]
  64  000E  1F00     R  	clr _UART0_2[3]
  64  000F  1F00     R  	clr _UART0_2[4]
  64  0010  1F00     R  	clr _UART0_2[5]
  64  0011  1F00     R  	clr _UART0_2[6]
  64  0012  1F00     R  	clr _UART0_2[7]
  64  0013  1F00     R  	clr _UART0_2[8]
  64  0014  1F00     R  	clr _UART0_2[9]
  64  0015  1F00     R  	clr _UART0_2[10]
  64  0016  1F00     R  	clr _UART0_2[11]
  64  0017  1F00     R  	clr _UART0_2[12]
  64  0018  1F00     R  	clr _UART0_2[13]
  64  0019  1F00     R  	clr _UART0_2[14]
  64  001A  1F00     R  	clr _UART0_2[15]
  64  001B  1F00     R  	clr _UART0_2[16]
  64  001C  1F00     R  	clr _UART0_2[17]
  64  001D  1F00     R  	clr _UART0_2[18]
  64  001E  1F00     R  	clr _UART0_2[19]
  64  001F  1F00     R  	clr _UART0_2[20]
  64  0020  1F00     R  	clr _UART0_2[21]
  64  0021  1F00     R  	clr _UART0_2[22]
  64  0022  1F00     R  	clr _UART0_2[23]
  64  0023  1F00     R  	clr _UART0_2[24]
  64  0024  1F00     R  	clr _UART0_2[25]
  64  0025  1F00     R  	clr _UART0_2[26]
  64  0026  1F00     R  	clr _UART0_2[27]
  64  0027  1F00     R  	clr _UART0_2[28]
  64  0028  1F00     R  	clr _UART0_2[29]
  64  0029  1F00     R  	clr _UART0_2[30]
  64  002A  1F00     R  	clr _UART0_2[31]
  64  002B  1F00     R  	clr _UART0_2[32]
  64  002C  1F00     R  	clr _UART0_2[33]
  64  002D  1F00     R  	clr _UART0_2[34]
  64  002E  1F00     R  	clr _UART0_2[35]
  64  002F  1F00     R  	clr _UART0_2[36]
  64  0030  1F00     R  	clr _UART0_2[37]
  64  0031  1F00     R  	clr _UART0_2[38]
  64  0032  1F00     R  	clr _UART0_2[39]
  64  0033  1F00     R  	clr _UART0_2[40]
  64  0034  1F00     R  	clr _UART0_2[41]
  64  0035  1F00     R  	clr _UART0_2[42]
  64  0036  1F00     R  	clr _UART0_2[43]
  64  0037  1F00     R  	clr _UART0_2[44]
  64  0038  1F00     R  	clr _UART0_2[45]
  64  0039  1F00     R  	clr _UART0_2[46]
  64  003A  1F00     R  	clr _UART0_2[47]
"File: UART.c        Assembler  Version HGASM0202      Page 9

  64  003B  1F00     R  	clr _UART0_2[48]
  64  003C  1F00     R  	clr _UART0_2[49]
  64  003D  1F00     R  	clr _UART0_2[50]
  64  003E  1F00     R  	clr _UART0_2[51]
  64  003F  1F00     R  	clr _UART0_2[52]
  64  0040  1F00     R  	clr _UART0_2[53]
  64  0041  1F00     R  	clr _UART0_2[54]
  64  0042  1F00     R  	clr _UART0_2[55]
  64  0043  1F00     R  	clr _UART0_2[56]
  64  0044  1F00     R  	clr _UART0_2[57]
  64  0045  1F00     R  	clr _UART0_2[58]
  64  0046  1F00     R  	clr _UART0_2[59]
  64  0047  1F00     R  	clr _UART0_2[60]
  64  0048  1F00     R  	clr _UART0_2[61]
  64  0049  1F00     R  	clr _UART0_2[62]
  64  004A  1F00     R  	clr _UART0_2[63]
  64  004B  1F00     R  	clr _UART0_2[64]
  64  004C  1F00     R  	clr _UART0_2[65]
  64  004D  1F00     R  	clr _UART0_2[66]
  64  004E  1F00     R  	clr _UART0_2[67]
  64  004F  1F00     R  	clr _UART0_2[68]
  64  0050  1F00     R  	clr _UART0_2[69]
  64  0051  1F00     R  	clr _UART0_2[70]
  64  0052  1F00     R  	clr _UART0_2[71]
  64  0053  1F00     R  	clr _UART0_2[72]
  64  0054  1F00     R  	clr _UART0_2[73]
  64  0055  1F00     R  	clr _UART0_2[74]
  64  0056  1F00     R  	clr _UART0_2[75]
  64  0057  1F00     R  	clr _UART0_2[76]
  64  0058  1F00     R  	clr _UART0_2[77]
  64  0059  1F00     R  	clr _UART0_2[78]
  64  005A  1F00     R  	clr _UART0_2[79]
  64  005B  1F00     R  	clr _UART0_2[80]
  64  005C  1F00     R  	clr _UART0_2[81]
  64  005D  1F00     R  	clr _UART0_2[82]
  64  005E  1F00     R  	clr _UART0_2[83]
  64  005F  1F00     R  	clr _UART0_2[84]
  64  0060  1F00     R  	clr _UART0_2[85]
  64  0061  1F00     R  	clr _UART0_2[86]
  64  0062  1F00     R  	clr _UART0_2[87]
  64  0063  1F00     R  	clr _UART0_2[88]
  64  0064  1F00     R  	clr _UART0_2[89]
  64  0065  1F00     R  	clr _UART0_2[90]
  64  0066  1F00     R  	clr _UART0_2[91]
  64  0067  1F00     R  	clr _UART0_2[92]
  64  0068  1F00     R  	clr _UART0_2[93]
  64  0069  1F00     R  	clr _UART0_2[94]
  64  006A  1F00     R  	clr _UART0_2[95]
  64  006B  1F00     R  	clr _UART0_2[96]
  64  006C  1F00     R  	clr _UART0_2[97]
  64  006D  1F00     R  	clr _UART0_2[98]
  64  006E  1F00     R  	clr _UART0_2[99]
  65  006F              #line 65 "C:\Users\icetz\OneDrive\文件\HTK_Project\UART\UART.c"
  65  006F  0F0A        	mov a,10
  65  0070  0080     R  	mov _get_buff_2[2],a
  65  0071  0F00     R  	mov a,low offset _UART0_2
  65  0072  0080     R  	mov _get_buff_2[0],a
  65  0073  0F00     R  	mov a,high offset _UART0_2
  65  0074  0080     R  	mov _get_buff_2[1],a
  65  0075              	fcall _get_buff
"File: UART.c        Assembler  Version HGASM0202      Page 10

  66  007C              #line 66 "C:\Users\icetz\OneDrive\文件\HTK_Project\UART\UART.c"
  66  007C  0F00     R  	mov a,low offset _UART0_2
  66  007D  0080     R  	mov _send_buff_2[0],a
  66  007E  0F00     R  	mov a,high offset _UART0_2
  66  007F  0080     R  	mov _send_buff_2[1],a
  66  0080              	fcall _send_buff
  67  0087              #line 67 "C:\Users\icetz\OneDrive\文件\HTK_Project\UART\UART.c"
  67  0087  3638        	clr [56].4
  67  0088  0700     E  	mov a,r2
  67  0089  008B        	mov bp,a
  67  008A  0700     E  	mov a,r3
  67  008B  008A        	mov status,a
  67  008C  0700     E  	mov a,r4
  67  008D  0083        	mov mp,a
  67  008E  0700     E  	mov a,r5
  67  008F  0084        	mov sbp,a
  67  0090  0700     E  	mov a,r6
  67  0091  0087        	mov tblp,a
  67  0092  0700     E  	mov a,r7
  67  0093  0089        	mov tbhp,a
  67  0094  1D05        	tabrdc acc
  67  0095  0700     E  	mov a,r1
  67  0096  0004        	reti
  67  0097              _UART0 endp
  67  0097              
  67  0097              #line 67 "C:\Users\icetz\OneDrive\文件\HTK_Project\UART\UART.c"
  67  0097              #pragma debug scope 1 1
  67  0097              #pragma debug struct_end
  67  0097              #pragma debug struct_end
  67  0097              #pragma debug union_end
  67  0097              #pragma debug union_end
  67  0097              #pragma debug variable 46 1 ___intc0 "__intc0" 1
  67  0097              #pragma debug struct_end
  67  0097              #pragma debug struct_end
  67  0097              #pragma debug union_end
  67  0097              #pragma debug union_end
  67  0097              #pragma debug variable 48 1 ___intc3 "__intc3" 1
  67  0097              #pragma debug struct_end
  67  0097              #pragma debug struct_end
  67  0097              #pragma debug union_end
  67  0097              #pragma debug union_end
  67  0097              #pragma debug variable 50 1 ___mfi5 "__mfi5" 1
  67  0097              #pragma debug struct_end
  67  0097              #pragma debug struct_end
  67  0097              #pragma debug union_end
  67  0097              #pragma debug union_end
  67  0097              #pragma debug variable 52 1 ___wdtc "__wdtc" 1
  67  0097              #pragma debug struct_end
  67  0097              #pragma debug struct_end
  67  0097              #pragma debug union_end
  67  0097              #pragma debug union_end
  67  0097              #pragma debug variable 54 1 ___u0sr "__u0sr" 1
  67  0097              #pragma debug struct_end
  67  0097              #pragma debug struct_end
  67  0097              #pragma debug union_end
  67  0097              #pragma debug union_end
  67  0097              #pragma debug variable 56 1 ___u0cr1 "__u0cr1" 1
  67  0097              #pragma debug struct_end
  67  0097              #pragma debug struct_end
  67  0097              #pragma debug union_end
"File: UART.c        Assembler  Version HGASM0202      Page 11

  67  0097              #pragma debug union_end
  67  0097              #pragma debug variable 58 1 ___u0cr2 "__u0cr2" 1
  67  0097              #pragma debug variable 8 1 ___txr_rxr0 "__txr_rxr0" 1
  67  0097              #pragma debug variable 8 1 ___brg0 "__brg0" 1
  67  0097              #pragma debug struct_end
  67  0097              #pragma debug struct_end
  67  0097              #pragma debug union_end
  67  0097              #pragma debug union_end
  67  0097              #pragma debug variable 60 1 ___pas1 "__pas1" 1
  67  0097              extern r1:byte
  67  0097              extern r2:byte
  67  0097              extern r3:byte
  67  0097              extern r4:byte
  67  0097              extern r5:byte
  67  0097              extern r6:byte
  67  0097              extern r7:byte
  53  0097              #line 53 "C:\Users\icetz\OneDrive\文件\HTK_Project\UART\UART.c"
  53  0000              @code .section at 0 'code'
  53  0000  1F0B        	clr bp
  53  0001  2800     R  	jmp _main_startup1
  53  0002              
  53  0002              
  53  0002              ; 
  53  0002              ; Generated by holtek-gcc v3.19, Mon Oct 30 21:46:16 2023
  53  0002              ; Rebuild 718
  53  0002              ; end of file


        0 Errors, 0