"File: UART.c        Assembler  Version HGASM0202      Page 1


   1  0000              ; Generated by holtek-gcc v3.19, Tue Oct 31 13:08:22 2023
   2  0000              ; 
   3  0000              ; Configuration:
   4  0000              ;       with long instruction
   5  0000              ;       Multi-ROM, Multi-RAM
   6  0000              ;       bits_per_rom_unit:16
   7  0000              ;       with mp1
   8  0000              ;       with tbhp, address(0x9)
   9  0000              ;          Use tabrd-const
  10  0000              ;       
  11  0000              ; SFR address of long-instruction arch:
  12  0000              ;    mp0 = -1,1,0
  13  0000              ;    mp1 = 4,3,2
  14  0000              ;    mp2 = 14,13,12
  15  0000              ;    tbp = 9,7,8
  16  0000              ;    acc = 5
  17  0000              ;    pcl = 6
  18  0000              ;    status = 10
  19  0000              ;    bp = 11
  20  0000              ;    intc = 16
  21  0000              ;       
  22  0000              ;       
  23  0000              ; use 'tabrdc' instead of 'tabrd'
  24  0000              ;       
  25  0000              
  26  0000              #pragma translator "holtek-gcc 4.6.4" "3.19" "build 20130711"
  27  0000              ; Rebuild 718
  28  0000              
  29  0000              ir equ [2]
  30  0000              mp equ [3]
  31  0000              sbp equ [4]
  32  0000              acc equ [5]
  33  0000              bp equ [11]
  34  0000              tblp equ [7]
  35  0000              tbhp equ [9]
  36  0000              status equ [10]
  37  0000              c equ [10].0
  38  0000              ac equ [10].1
  39  0000              z equ [10].2
  40  0000              ov equ [10].3
  41  0000              cz equ [10].6
  42  0000              sc equ [10].7
  43  0000              intc equ [16]
  44  0000              mduwr0 equ [59h]
  45  0000              mduwr1 equ [5ah]
  46  0000              mduwr2 equ [5bh]
  47  0000              mduwr3 equ [5ch]
  48  0000              mduwr4 equ [5dh]
  49  0000              mduwr5 equ [5eh]
  50  0000              mduwrctrl equ [5fh]
  51  0000              
  52  0000              extern ra:byte
  53  0000              extern rb:byte
  54  0000              extern rc:byte
  55  0000              extern rd:byte
  56  0000              extern re:byte
  57  0000              extern rf:byte
  58  0000              extern rg:byte
  59  0000              extern rh:byte
"File: UART.ASM      Assembler  Version HGASM0202      Page 2

  60  0000              extern _Crom2Prom:near
  61  0000              extern _Crom2PromNext:near
  62  0000              
  63  0000              RAMBANK 0 @BITDATASEC, @BITDATASEC1
  64  0000              @HCCINIT	.section 'data'
  65  0000              @HCCINIT0	.section 'data'
  66  0000              @BITDATASEC	 .section 'data'
  67  0000              @BITDATASEC1	 .section 'data'
  68  0000              
  69  0000              #pragma debug scope 1 1
  70  0000              	extern __DELAY3:near
  71  0000              	extern __DELAYX3:near
  72  0000              	extern __DELAYX6:near
  73  0000              	extern __DELAYY5:near
  74  0000              	extern __DELAYY3:near
  75  0000              	extern _builtin_holtek_delay_2:byte
  76  0000              public _Delayms
  77  0000              #pragma debug scope 2 1

  24  0000              #line 24 "C:\Users\icetz\OneDrive\文件\HTK_Project\UART\UART.c"
  24  0000              _Delayms .section 'code'
  24  0000              _Delayms proc
  24  0000              public _Delayms_2
  24  0000  0002[           local _Delayms_2 db 2 dup(?)	; 2,0
            00
            ]
  24  0002              #pragma debug variable 10 2 _Delayms_2+0 "del"
  25  0002              #line 25 "C:\Users\icetz\OneDrive\文件\HTK_Project\UART\UART.c"
  25  0000  1F00     E  	clr rb
  25  0001  1F00     E  	clr rc
  25  0002  2800     R  	jmp _L2
  25  0003              _L3:
  25  0003              #line 25 "C:\Users\icetz\OneDrive\文件\HTK_Project\UART\UART.c"
  25  0003              ;# 25 "C:\Users\icetz\OneDrive\文件\HTK_Project\UART\UART.c" 1
  25  0003              	IF 2000>263690
  25  0003              ;# 25 "C:\Users\icetz\OneDrive\文件\HTK_Project\UART\UART.c" 1
  25  0003              	ERRMESSAGE 'the value 2000of the argument exceeds the maxinum 263690'
  25  0003              	ENDIF
  25  0003              ;# 25 "C:\Users\icetz\OneDrive\文件\HTK_Project\UART\UART.c" 1
  25  0003              	IF 2000<0
  25  0003              ;# 25 "C:\Users\icetz\OneDrive\文件\HTK_Project\UART\UART.c" 1
  25  0003              	ERRMESSAGE 'the value 2000 of the argument exceeds the mininum 0'
  25  0003              	ENDIF
  25  0003              ;# 25 "C:\Users\icetz\OneDrive\文件\HTK_Project\UART\UART.c" 1
  25  0003              	IF 2000==0
  25  0003              ;# 25 "C:\Users\icetz\OneDrive\文件\HTK_Project\UART\UART.c" 1
  25  0003              	JMP $
  25  0003              	ENDIF
  25  0003              ;# 25 "C:\Users\icetz\OneDrive\文件\HTK_Project\UART\UART.c" 1
  25  0003              	IF (2000>=1) AND (2000<( 4 + __PBP__ * 2))
  25  0003              ;# 25 "C:\Users\icetz\OneDrive\文件\HTK_Project\UART\UART.c" 1
  25  0003              	NOP
  25  0003              	ENDIF
  25  0003              ;# 25 "C:\Users\icetz\OneDrive\文件\HTK_Project\UART\UART.c" 1
  25  0003              	IF (2000>=2) AND (2000<( 4 + __PBP__ * 2))
  25  0003              ;# 25 "C:\Users\icetz\OneDrive\文件\HTK_Project\UART\UART.c" 1
  25  0003              	NOP
  25  0003              	ENDIF
  25  0003              ;# 25 "C:\Users\icetz\OneDrive\文件\HTK_Project\UART\UART.c" 1
  25  0003              	IF (2000>=3) AND (2000<( 4 + __PBP__ * 2))
"File: UART.c        Assembler  Version HGASM0202      Page 3

  25  0003              ;# 25 "C:\Users\icetz\OneDrive\文件\HTK_Project\UART\UART.c" 1
  25  0003              	NOP
  25  0003              	ENDIF
  25  0003              ;# 25 "C:\Users\icetz\OneDrive\文件\HTK_Project\UART\UART.c" 1
  25  0003              	IF (2000>=4) AND (2000<( 4 + __PBP__ * 2)) AND ( __PBP__ > 0 )
  25  0003              ;# 25 "C:\Users\icetz\OneDrive\文件\HTK_Project\UART\UART.c" 1
  25  0003              	NOP
  25  0003              	ENDIF
  25  0003              ;# 25 "C:\Users\icetz\OneDrive\文件\HTK_Project\UART\UART.c" 1
  25  0003              	IF (2000>=5) AND (2000<( 4 + __PBP__ * 2)) AND ( __PBP__ > 0 )
  25  0003              ;# 25 "C:\Users\icetz\OneDrive\文件\HTK_Project\UART\UART.c" 1
  25  0003              	NOP
  25  0003              	ENDIF
  25  0003              ;# 25 "C:\Users\icetz\OneDrive\文件\HTK_Project\UART\UART.c" 1
  25  0003              	IF (2000>=6) AND (2000<( 4 + __PBP__ * 2))  AND ( __PBP__ > 1 )
  25  0003              ;# 25 "C:\Users\icetz\OneDrive\文件\HTK_Project\UART\UART.c" 1
  25  0003              	NOP
  25  0003              	ENDIF
  25  0003              ;# 25 "C:\Users\icetz\OneDrive\文件\HTK_Project\UART\UART.c" 1
  25  0003              	IF (2000>=7) AND (2000<( 4 + __PBP__ * 2))  AND ( __PBP__ > 1 )
  25  0003              ;# 25 "C:\Users\icetz\OneDrive\文件\HTK_Project\UART\UART.c" 1
  25  0003              	NOP
  25  0003              	ENDIF
  25  0003              ;# 25 "C:\Users\icetz\OneDrive\文件\HTK_Project\UART\UART.c" 1
  25  0003              	IF (2000>=8) AND (2000<( 4 + __PBP__ * 2))  AND ( __PBP__ > 2 )
  25  0003              ;# 25 "C:\Users\icetz\OneDrive\文件\HTK_Project\UART\UART.c" 1
  25  0003              	NOP
  25  0003              	ENDIF
  25  0003              ;# 25 "C:\Users\icetz\OneDrive\文件\HTK_Project\UART\UART.c" 1
  25  0003              	IF (2000==9)  AND ( __PBP__ > 2 )
  25  0003              ;# 25 "C:\Users\icetz\OneDrive\文件\HTK_Project\UART\UART.c" 1
  25  0003              	NOP
  25  0003              	ENDIF
  25  0003              ;# 25 "C:\Users\icetz\OneDrive\文件\HTK_Project\UART\UART.c" 1
  25  0003              	IF (2000< ( 8 + __PBP__ * 2)) AND (2000>( 3 + __PBP__ * 2))
  25  0003              ;# 25 "C:\Users\icetz\OneDrive\文件\HTK_Project\UART\UART.c" 1
  25  0003              	fcall __DELAY3 + ( 7 + __PBP__ * 2) -2000
  25  0003              	ENDIF
  25  0003              ;# 25 "C:\Users\icetz\OneDrive\文件\HTK_Project\UART\UART.c" 1
  25  0003              	IF (2000< ( 0404h + __PBP__ * 2)) AND (2000>( 7 + __PBP__ * 2))
  25  0003              ;# 25 "C:\Users\icetz\OneDrive\文件\HTK_Project\UART\UART.c" 1
  25  0003              	MOV A,(2000-( 4 + __PBP__ * 2))/4
  25  0003              ;# 25 "C:\Users\icetz\OneDrive\文件\HTK_Project\UART\UART.c" 1
  25  0003              	fcall __DELAYX3 + 3 -((2000-( 4 + __PBP__ * 2)) MOD 4) 
  25  0003              	ENDIF
  25  0003              ;# 25 "C:\Users\icetz\OneDrive\文件\HTK_Project\UART\UART.c" 1
  25  0003              	IF (2000< ( 040bh + __PBP__ * 2)) AND (2000> ( 0403h + __PBP__ * 2))
  25  0003              ;# 25 "C:\Users\icetz\OneDrive\文件\HTK_Project\UART\UART.c" 1
  25  0003              	MOV A,0 
  25  0003              ;# 25 "C:\Users\icetz\OneDrive\文件\HTK_Project\UART\UART.c" 1
  25  0003              	fcall __DELAYX6 + ( 040ah + __PBP__ * 2) -2000
  25  0003              	ENDIF
  25  0003              ;# 25 "C:\Users\icetz\OneDrive\文件\HTK_Project\UART\UART.c" 1
  25  0003              	IF (2000 >= ( 040bh + __PBP__ * 2)) AND ((((2000-( 9 + __PBP__ * 2))%0402h)/4+1)>256)
  25  0003              ;# 25 "C:\Users\icetz\OneDrive\文件\HTK_Project\UART\UART.c" 1
  25  0003              	MOV A,(2000-( 9 + __PBP__ * 2))/0402h
  25  0003              ;# 25 "C:\Users\icetz\OneDrive\文件\HTK_Project\UART\UART.c" 1
  25  0003              	MOV _builtin_holtek_delay_2,A
  25  0003              ;# 25 "C:\Users\icetz\OneDrive\文件\HTK_Project\UART\UART.c" 1
  25  0003              	MOV A,0
"File: UART.c        Assembler  Version HGASM0202      Page 4

  25  0003              ;# 25 "C:\Users\icetz\OneDrive\文件\HTK_Project\UART\UART.c" 1
  25  0003              	fcall __DELAYY5 +5- (((2000-( 9 + __PBP__ * 2))%0402h)%6) 
  25  0003              	ENDIF
  25  0003              ;# 25 "C:\Users\icetz\OneDrive\文件\HTK_Project\UART\UART.c" 1
  25  0003              	IF (2000 >= ( 040bh + __PBP__ * 2)) AND ((((2000-( 9 + __PBP__ * 2))%0402h)/4+1)<=256)
  25  0003              ;# 25 "C:\Users\icetz\OneDrive\文件\HTK_Project\UART\UART.c" 1
  25  0003  0F01        	MOV A,(2000-( 9 + __PBP__ * 2))/0402h
  25  0004              ;# 25 "C:\Users\icetz\OneDrive\文件\HTK_Project\UART\UART.c" 1
  25  0004  0080     E  	MOV _builtin_holtek_delay_2,A
  25  0005              ;# 25 "C:\Users\icetz\OneDrive\文件\HTK_Project\UART\UART.c" 1
  25  0005  0FF0        	MOV A,((2000-( 9 + __PBP__ * 2))%0402h)/4+1
  25  0006              ;# 25 "C:\Users\icetz\OneDrive\文件\HTK_Project\UART\UART.c" 1
  25  0006              	fcall __DELAYY3 +3-(((2000-( 9 + __PBP__ * 2))%0402h)%4) 
  25  000D              	ENDIF
  25  000D  1480     E  	inc rb
  25  000E  3D0A        	sz z
  25  000F  1480     E  	inc rc
  25  0010              _L2:
  25  0010  0700     E  	mov a,rb
  25  0011  0200     R  	sub a,_Delayms_2[0]
  25  0012  0700     E  	mov a,rc
  25  0013  1200     R  	sbc a,_Delayms_2[1]
  25  0014  3B0A        	snz cz
  25  0015  2800     R  	jmp _L3
  25  0016  0003        	ret
  25  0017              _Delayms endp
  25  0017              #line 25 "C:\Users\icetz\OneDrive\文件\HTK_Project\UART\UART.c"
  25  0017              #pragma debug scope 1 1
  25  0017              ___txr_rxr0 equ [275]
  25  0017              ___u0sr equ [272]
  25  0017              public _send_char
  25  0017              #pragma debug scope 3 1
  31  0017              #line 31 "C:\Users\icetz\OneDrive\文件\HTK_Project\UART\UART.c"
  31  0000              _send_char .section 'code'
  31  0000              _send_char proc
  31  0000  00              local _send_char_2 db 1 dup(?)	; 0,1
  31  0000  0080     E  	mov ra,a
  31  0001  0080     R  	mov _send_char_2[0],a
  31  0002              #pragma debug variable 7 3 _send_char_2+0 "s"
  32  0002              #line 32 "C:\Users\icetz\OneDrive\文件\HTK_Project\UART\UART.c"
  32  0002  0700     E  	mov a,ra
  32  0003  8093 0001   	lmov [275],a
  32  0005              _L7:
  33  0005              #line 33 "C:\Users\icetz\OneDrive\文件\HTK_Project\UART\UART.c"
  33  0005  B810 0001   	lsnz [272].0
  33  0007  2800     R  	jmp _L7
  33  0008  0003        	ret
  33  0009              _send_char endp
  33  0009              #line 33 "C:\Users\icetz\OneDrive\文件\HTK_Project\UART\UART.c"
  33  0009              #pragma debug scope 1 1
  33  0009              public _send_buff
  33  0009              #pragma debug scope 4 1
  37  0009              #line 37 "C:\Users\icetz\OneDrive\文件\HTK_Project\UART\UART.c"
  37  0000              _send_buff .section 'code'
  37  0000              _send_buff proc
  37  0000              public _send_buff_2
  37  0000  0002[           local _send_buff_2 db 2 dup(?)	; 2,0
            00
            ]
  37  0002              #pragma debug pointer 42 7 4
"File: UART.c        Assembler  Version HGASM0202      Page 5

  37  0002              #pragma debug pointer 42 7 4
  37  0002              #pragma debug variable 42 4 _send_buff_2+0 "s"
  38  0002              #line 38 "C:\Users\icetz\OneDrive\文件\HTK_Project\UART\UART.c"
  38  0000  2800     R  	jmp _L9
  38  0001              _L10:
  40  0001              #line 40 "C:\Users\icetz\OneDrive\文件\HTK_Project\UART\UART.c"
  40  0001  0700     E  	mov a,ra
  40  0002              	fcall _send_char
  41  0009              #line 41 "C:\Users\icetz\OneDrive\文件\HTK_Project\UART\UART.c"
  41  0009  1480     R  	inc _send_buff_2[0]
  41  000A  3D0A        	sz z
  41  000B  1480     R  	inc _send_buff_2[1]
  41  000C              _L9:
  38  000C              #line 38 "C:\Users\icetz\OneDrive\文件\HTK_Project\UART\UART.c"
  38  000C  0700     R  	mov a,_send_buff_2[0]
  38  000D  0083        	mov mp,a
  38  000E  0700     R  	mov a,_send_buff_2[1]
  38  000F  0084        	mov sbp,a
  38  0010              	fcall _Crom2Prom
  38  0017  0080     E  	mov ra,a
  38  0018  1080     E  	sz ra
  38  0019  2800     R  	jmp _L10
  38  001A  0003        	ret
  38  001B              _send_buff endp
  38  001B              #line 38 "C:\Users\icetz\OneDrive\文件\HTK_Project\UART\UART.c"
  38  001B              #pragma debug scope 1 1
  38  001B              ___wdtc equ [62]
  38  001B              ___pas1 equ [334]
  38  001B              ___u0cr1 equ [273]
  38  001B              ___u0cr2 equ [274]
  38  001B              ___brg0 equ [276]
  38  001B              ___mfi5 equ [56]
  38  001B              ___intc3 equ [19]
  38  001B              ___intc0 equ [16]
  38  001B              public _inituart
  38  001B              #pragma debug scope 5 1
  45  001B              #line 45 "C:\Users\icetz\OneDrive\文件\HTK_Project\UART\UART.c"
  45  0000              _inituart .section 'code'
  45  0000              _inituart proc
  46  0000              #line 46 "C:\Users\icetz\OneDrive\文件\HTK_Project\UART\UART.c"
  46  0000  0FAF        	mov a,175
  46  0001  00BE        	mov [62],a
  47  0002              #line 47 "C:\Users\icetz\OneDrive\文件\HTK_Project\UART\UART.c"
  47  0002  0FC0        	mov a,192
  47  0003  80CE 0001   	lmov [334],a
  48  0005              #line 48 "C:\Users\icetz\OneDrive\文件\HTK_Project\UART\UART.c"
  48  0005  0F80        	mov a,128
  48  0006  8091 0001   	lmov [273],a
  49  0008              #line 49 "C:\Users\icetz\OneDrive\文件\HTK_Project\UART\UART.c"
  49  0008  0FE4        	mov a,228
  49  0009  8092 0001   	lmov [274],a
  50  000B              #line 50 "C:\Users\icetz\OneDrive\文件\HTK_Project\UART\UART.c"
  50  000B  0F19        	mov a,25
  50  000C  8094 0001   	lmov [276],a
  51  000E              #line 51 "C:\Users\icetz\OneDrive\文件\HTK_Project\UART\UART.c"
  51  000E  3038        	set [56].0
  52  000F              #line 52 "C:\Users\icetz\OneDrive\文件\HTK_Project\UART\UART.c"
  52  000F  3193        	set [19].3
  53  0010              #line 53 "C:\Users\icetz\OneDrive\文件\HTK_Project\UART\UART.c"
  53  0010  3010        	set [16].0
"File: UART.c        Assembler  Version HGASM0202      Page 6

  53  0011  0003        	ret
  53  0012              _inituart endp
  53  0012              #line 53 "C:\Users\icetz\OneDrive\文件\HTK_Project\UART\UART.c"
  53  0012              #pragma debug scope 1 1
  53  0012              public _get_buff
  53  0012              #pragma debug scope 6 1
  56  0012              #line 56 "C:\Users\icetz\OneDrive\文件\HTK_Project\UART\UART.c"
  56  0000              _get_buff .section 'code'
  56  0000              _get_buff proc
  56  0000              public _get_buff_2
  56  0000  0003[           local _get_buff_2 db 3 dup(?)	; 3,0
            00
            ]
  56  0003              #pragma debug pointer 43 7 6
  56  0003              #pragma debug pointer 43 7 6
  56  0003              #pragma debug variable 43 6 _get_buff_2+0 "rbuff"
  56  0003              #pragma debug variable 7 6 _get_buff_2+2 "c"
  57  0003              #line 57 "C:\Users\icetz\OneDrive\文件\HTK_Project\UART\UART.c"
  57  0000  1F00     E  	clr rb
  57  0001  1F00     E  	clr rc
  57  0002              _L14:
  60  0002              #line 60 "C:\Users\icetz\OneDrive\文件\HTK_Project\UART\UART.c"
  60  0002  B910 0001   	lsnz [272].2
  60  0004  2800     R  	jmp _L14
  61  0005              #line 61 "C:\Users\icetz\OneDrive\文件\HTK_Project\UART\UART.c"
  61  0005  8713 0001   	lmov a,[275]
  61  0007  0080     E  	mov ra,a
  64  0008              #line 64 "C:\Users\icetz\OneDrive\文件\HTK_Project\UART\UART.c"
  64  0008  0700     E  	mov a,rb
  64  0009  0300     R  	add a,_get_buff_2[0]
  64  000A  0083        	mov mp,a
  64  000B  0700     E  	mov a,rc
  64  000C  1300     R  	adc a,_get_buff_2[1]
  64  000D  0084        	mov sbp,a
  62  000E              #line 62 "C:\Users\icetz\OneDrive\文件\HTK_Project\UART\UART.c"
  62  000E  0700     E  	mov a,ra
  62  000F  0200     R  	sub a,_get_buff_2[2]
  62  0010  3D0A        	sz z
  62  0011  2800     R  	jmp _L18
  67  0012              #line 67 "C:\Users\icetz\OneDrive\文件\HTK_Project\UART\UART.c"
  67  0012  0700     E  	mov a,ra
  67  0013  0082        	mov ir,a
  68  0014              #line 68 "C:\Users\icetz\OneDrive\文件\HTK_Project\UART\UART.c"
  68  0014  1480     E  	inc rb
  68  0015  3D0A        	sz z
  68  0016  1480     E  	inc rc
  69  0017              #line 69 "C:\Users\icetz\OneDrive\文件\HTK_Project\UART\UART.c"
  69  0017  2800     R  	jmp _L14
  69  0018              _L18:
  64  0018              #line 64 "C:\Users\icetz\OneDrive\文件\HTK_Project\UART\UART.c"
  64  0018  0F00        	mov a,0
  64  0019  0082        	mov ir,a
  70  001A              #line 70 "C:\Users\icetz\OneDrive\文件\HTK_Project\UART\UART.c"
  70  001A  0700     E  	mov a,rb
  70  001B  0080     E  	mov ra,a
  70  001C  0700     E  	mov a,rc
  70  001D  0080     E  	mov rb,a
  70  001E  0003        	ret
  70  001F              _get_buff endp
  70  001F              #line 70 "C:\Users\icetz\OneDrive\文件\HTK_Project\UART\UART.c"
"File: UART.c        Assembler  Version HGASM0202      Page 7

  70  001F              #pragma debug scope 1 1
  70  001F              public _intToStr
  70  001F              #pragma debug scope 7 1
  74  001F              #line 74 "C:\Users\icetz\OneDrive\文件\HTK_Project\UART\UART.c"
  74  0000              _intToStr .section 'code'
  74  0000              _intToStr proc
  74  0000              public _intToStr_2
  74  0000  0014[           local _intToStr_2 db 20 dup(?)	; 4,16
            00
            ]
  74  0014              #pragma debug variable 11 7 _intToStr_2+0 "value"
  74  0014              #pragma debug pointer 44 7 7
  74  0014              #pragma debug pointer 44 7 7
  74  0014              #pragma debug variable 44 7 _intToStr_2+2 "str"
  80  0014              #line 80 "C:\Users\icetz\OneDrive\文件\HTK_Project\UART\UART.c"
  80  0000  0700     R  	mov a,_intToStr_2[0]
  80  0001  0500     R  	or a,_intToStr_2[1]
  80  0002  390A        	snz z
  80  0003  2800     R  	jmp _L20
  82  0004              #line 82 "C:\Users\icetz\OneDrive\文件\HTK_Project\UART\UART.c"
  82  0004  0700     R  	mov a,_intToStr_2[2]
  82  0005  0083        	mov mp,a
  82  0006  0700     R  	mov a,_intToStr_2[3]
  82  0007  0084        	mov sbp,a
  82  0008  0F30        	mov a,48
  82  0009  0082        	mov ir,a
  83  000A              #line 83 "C:\Users\icetz\OneDrive\文件\HTK_Project\UART\UART.c"
  83  000A  0F01        	mov a,1
  83  000B  0300     R  	add a,_intToStr_2[2]
  83  000C  0083        	mov mp,a
  83  000D  0F00        	mov a,0
  83  000E  1300     R  	adc a,_intToStr_2[3]
  83  000F  0084        	mov sbp,a
  83  0010  2800     R  	jmp _L28
  83  0011              _L20:
  83  0011              #pragma debug scope 8 7
  83  0011              ;begin block, line: 83.-1
  83  0011              #pragma debug scope 9 8
  83  0011              ;begin block, line: 83.-1
  83  0011              #pragma debug array 45 7 10 9
  83  0011              #pragma debug array 45 7 10 9
  83  0011              #pragma debug variable 45 9 _intToStr_2+4 "temp"
  88  0011              #line 88 "C:\Users\icetz\OneDrive\文件\HTK_Project\UART\UART.c"
  88  0011  3800     R  	snz _intToStr_2[1].7
  88  0012  2800     R  	jmp _L27
  90  0013              #line 90 "C:\Users\icetz\OneDrive\文件\HTK_Project\UART\UART.c"
  90  0013  0700     R  	mov a,_intToStr_2[2]
  90  0014  0083        	mov mp,a
  90  0015  0700     R  	mov a,_intToStr_2[3]
  90  0016  0084        	mov sbp,a
  90  0017  0F2D        	mov a,45
  90  0018  0082        	mov ir,a
  91  0019              #line 91 "C:\Users\icetz\OneDrive\文件\HTK_Project\UART\UART.c"
  91  0019  0F00        	mov a,0
  91  001A  0280     R  	subm a,_intToStr_2[0]
  91  001B  0F00        	mov a,0
  91  001C  1280     R  	sbcm a,_intToStr_2[1]
  90  001D              #line 90 "C:\Users\icetz\OneDrive\文件\HTK_Project\UART\UART.c"
  90  001D  0F01        	mov a,1
  90  001E  0080     R  	mov _intToStr_2[14],a
"File: UART.c        Assembler  Version HGASM0202      Page 8

  90  001F  1F00     R  	clr _intToStr_2[15]
  90  0020  2800     R  	jmp _L22
  90  0021              _L27:
  77  0021              #line 77 "C:\Users\icetz\OneDrive\文件\HTK_Project\UART\UART.c"
  77  0021  1F00     R  	clr _intToStr_2[14]
  77  0022  1F00     R  	clr _intToStr_2[15]
  77  0023              _L22:
  90  0023              #line 90 "C:\Users\icetz\OneDrive\文件\HTK_Project\UART\UART.c"
  90  0023  1F00     E  	clr rd
  90  0024  1F00     E  	clr re
  90  0025  0F00     R  	mov a,low offset _intToStr_2
  90  0026  0080     E  	mov rf,a
  90  0027  0F00     R  	mov a,high offset _intToStr_2
  90  0028  0080     E  	mov rg,a
  90  0029  0F04        	mov a,4
  90  002A  0380     E  	addm a,rf
  90  002B  0F00        	mov a,0
  90  002C  1380     E  	adcm a,rg
  90  002D              _L25:
  97  002D              #line 97 "C:\Users\icetz\OneDrive\文件\HTK_Project\UART\UART.c"
  97  002D  1480     E  	inc rd
  97  002E  3D0A        	sz z
  97  002F  1480     E  	inc re
  97  0030  0700     E  	mov a,rd
  97  0031  0300     E  	add a,rf
  97  0032  0080     E  	mov rb,a
  97  0033  0700     E  	mov a,re
  97  0034  1300     E  	adc a,rg
  97  0035  0080     E  	mov rc,a
  97  0036  0700     R  	mov a,_intToStr_2[0]
  97  0037  0080     E  	mov _builtin_holtek_udivmodhi4_2[0],a
  97  0038  0700     R  	mov a,_intToStr_2[1]
  97  0039  0080     E  	mov _builtin_holtek_udivmodhi4_2[1],a
  97  003A  0F0A        	mov a,10
  97  003B  0080     E  	mov _builtin_holtek_udivmodhi4_2[2],a
  97  003C  0F00        	mov a,0
  97  003D  0080     E  	mov _builtin_holtek_udivmodhi4_2[3],a
  97  003E              	fcall _builtin_holtek_divmodhi4
  97  0045  0700     E  	mov a,_builtin_holtek_udivmodhi4_2[4]
  97  0046  0080     R  	mov _intToStr_2[16],a
  97  0047  0700     E  	mov a,_builtin_holtek_udivmodhi4_2[5]
  97  0048  0080     R  	mov _intToStr_2[17],a
  97  0049  0700     R  	mov a,_intToStr_2[16]
  97  004A  0B30        	add a,48
  97  004B  0080     E  	mov ra,a
  97  004C  0FFF        	mov a,255
  97  004D  0300     E  	add a,rb
  97  004E  0083        	mov mp,a
  97  004F  0FFF        	mov a,255
  97  0050  1300     E  	adc a,rc
  97  0051  0084        	mov sbp,a
  97  0052  0700     E  	mov a,ra
  97  0053  0082        	mov ir,a
  98  0054              #line 98 "C:\Users\icetz\OneDrive\文件\HTK_Project\UART\UART.c"
  98  0054  0700     R  	mov a,_intToStr_2[0]
  98  0055  0080     E  	mov _builtin_holtek_udivmodhi4_2[0],a
  98  0056  0700     R  	mov a,_intToStr_2[1]
  98  0057  0080     E  	mov _builtin_holtek_udivmodhi4_2[1],a
  98  0058  0F0A        	mov a,10
  98  0059  0080     E  	mov _builtin_holtek_udivmodhi4_2[2],a
"File: UART.c        Assembler  Version HGASM0202      Page 9

  98  005A  0F00        	mov a,0
  98  005B  0080     E  	mov _builtin_holtek_udivmodhi4_2[3],a
  98  005C              	fcall _builtin_holtek_divmodhi4
  98  0063  0700     E  	mov a,_builtin_holtek_udivmodhi4_2[0]
  98  0064  0080     E  	mov rb,a
  98  0065  0700     E  	mov a,_builtin_holtek_udivmodhi4_2[1]
  98  0066  0080     E  	mov rc,a
  98  0067  0700     E  	mov a,rb
  98  0068  0080     R  	mov _intToStr_2[0],a
  98  0069  0700     E  	mov a,rc
  98  006A  0080     R  	mov _intToStr_2[1],a
  95  006B              #line 95 "C:\Users\icetz\OneDrive\文件\HTK_Project\UART\UART.c"
  95  006B  0700     E  	mov a,rb
  95  006C  0500     E  	or a,rc
  95  006D  390A        	snz z
  95  006E  2800     R  	jmp _L25
  97  006F              #line 97 "C:\Users\icetz\OneDrive\文件\HTK_Project\UART\UART.c"
  97  006F  0700     E  	mov a,rd
  97  0070  0080     R  	mov _intToStr_2[18],a
  97  0071  0700     E  	mov a,re
  97  0072  0080     R  	mov _intToStr_2[19],a
  97  0073  0700     R  	mov a,_intToStr_2[14]
  97  0074  0080     E  	mov rb,a
  97  0075  0700     R  	mov a,_intToStr_2[15]
  97  0076  0080     E  	mov rc,a
  97  0077  0F00     R  	mov a,low offset _intToStr_2
  97  0078  0080     E  	mov rf,a
  97  0079  0F00     R  	mov a,high offset _intToStr_2
  97  007A  0080     E  	mov rg,a
  97  007B  0F04        	mov a,4
  97  007C  0300     E  	add a,rf
  97  007D  0080     R  	mov _intToStr_2[16],a
  97  007E  0F00        	mov a,0
  97  007F  1300     E  	adc a,rg
  97  0080  0080     R  	mov _intToStr_2[17],a
  97  0081              _L24:
 104  0081              #line 104 "C:\Users\icetz\OneDrive\文件\HTK_Project\UART\UART.c"
 104  0081  0FFF        	mov a,255
 104  0082  0380     E  	addm a,rd
 104  0083  0FFF        	mov a,255
 104  0084  1380     E  	adcm a,re
 104  0085  0700     E  	mov a,rd
 104  0086  0300     R  	add a,_intToStr_2[16]
 104  0087  0083        	mov mp,a
 104  0088  0700     E  	mov a,re
 104  0089  1300     R  	adc a,_intToStr_2[17]
 104  008A  0084        	mov sbp,a
 104  008B              	fcall _Crom2Prom
 104  0092  0080     E  	mov ra,a
 104  0093  0700     E  	mov a,rb
 104  0094  0300     R  	add a,_intToStr_2[2]
 104  0095  0083        	mov mp,a
 104  0096  0700     E  	mov a,rc
 104  0097  1300     R  	adc a,_intToStr_2[3]
 104  0098  0084        	mov sbp,a
 104  0099  0700     E  	mov a,ra
 104  009A  0082        	mov ir,a
 104  009B  1480     E  	inc rb
 104  009C  3D0A        	sz z
 104  009D  1480     E  	inc rc
"File: UART.c        Assembler  Version HGASM0202      Page 10

 102  009E              #line 102 "C:\Users\icetz\OneDrive\文件\HTK_Project\UART\UART.c"
 102  009E  0700     E  	mov a,rd
 102  009F  0500     E  	or a,re
 102  00A0  390A        	snz z
 102  00A1  2800     R  	jmp _L24
 107  00A2              #line 107 "C:\Users\icetz\OneDrive\文件\HTK_Project\UART\UART.c"
 107  00A2  0700     R  	mov a,_intToStr_2[14]
 107  00A3  0300     R  	add a,_intToStr_2[2]
 107  00A4  0080     E  	mov rb,a
 107  00A5  0700     R  	mov a,_intToStr_2[15]
 107  00A6  1300     R  	adc a,_intToStr_2[3]
 107  00A7  0080     E  	mov rc,a
 107  00A8  0700     R  	mov a,_intToStr_2[18]
 107  00A9  0300     E  	add a,rb
 107  00AA  0083        	mov mp,a
 107  00AB  0700     R  	mov a,_intToStr_2[19]
 107  00AC  1300     E  	adc a,rc
 107  00AD  0084        	mov sbp,a
 107  00AE              _L28:
 107  00AE  0F00        	mov a,0
 107  00AF  0082        	mov ir,a
 107  00B0              #pragma debug scope 8 7
 107  00B0              #pragma debug scope 7 1
 110  00B0              #line 110 "C:\Users\icetz\OneDrive\文件\HTK_Project\UART\UART.c"
 110  00B0  0700     R  	mov a,_intToStr_2[2]
 110  00B1  0080     E  	mov ra,a
 110  00B2  0700     R  	mov a,_intToStr_2[3]
 110  00B3  0080     E  	mov rb,a
 110  00B4  0003        	ret
 110  00B5              _intToStr endp
 110  00B5              #line 110 "C:\Users\icetz\OneDrive\文件\HTK_Project\UART\UART.c"
 110  00B5              #pragma debug scope 1 1
 110  0000              @crom	.section 'crom'
 110  0000              _LC0:
 110  0000              	db 049h,06eh,076h,061h,06ch,069h,064h,020h,066h,06fh
 110  0005              	db 072h,06dh,061h,074h,021h,0dh,0ah,00h
 110  0009              @crom	.section 'crom'
 110  0009              _LC1:
 110  0009              	db 041h,054h,02bh,050h,057h,04dh,03dh,00h
 110  000D              @crom	.section 'crom'
 110  000D              _LC2:
 110  000D              	db 050h,057h,04dh,020h,076h,061h,06ch,075h,065h,020h
 110  0012              	db 073h,065h,074h,021h,0dh,0ah,00h
 110  0016              @crom	.section 'crom'
 110  0016              _LC3:
 110  0016              	db 041h,054h,02bh,050h,057h,052h,03dh,00h
 110  001A              @crom	.section 'crom'
 110  001A              _LC4:
 110  001A              	db 050h,06fh,077h,065h,072h,020h,076h,061h,06ch,075h
 110  001F              	db 065h,020h,073h,065h,074h,021h,0dh,0ah,00h
 110  0023              @crom	.section 'crom'
 110  0023              _LC5:
 110  0023              	db 041h,054h,02bh,056h,045h,052h,03dh,00h
 110  0027              @crom	.section 'crom'
 110  0027              _LC6:
 110  0027              	db 056h,065h,072h,073h,069h,06fh,06eh,020h,076h,061h
 110  002C              	db 06ch,075h,065h,020h,073h,065h,074h,021h,0dh,0ah
 110  0031              	db 00h
 110  0032              @crom	.section 'crom'
 110  0032              _LC7:
"File: UART.c        Assembler  Version HGASM0202      Page 11

 110  0032              	db 041h,054h,02bh,043h,04dh,044h,03fh,00h
 110  0036              @crom	.section 'crom'
 110  0036              _LC8:
 110  0036              	db 050h,057h,04dh,03ah,020h,00h
 110  0039              @crom	.section 'crom'
 110  0039              _LC9:
 110  0039              	db 02ch,020h,050h,057h,052h,03ah,020h,00h
 110  003D              @crom	.section 'crom'
 110  003D              _LC10:
 110  003D              	db 02ch,020h,056h,045h,052h,03ah,020h,00h
 110  0041              @crom	.section 'crom'
 110  0041              _LC11:
 110  0041              	db 0dh,0ah,00h
 110  0042              @crom	.section 'crom'
 110  0042              _LC12:
 110  0042              	db 055h,06eh,06bh,06eh,06fh,077h,06eh,020h,063h,06fh
 110  0047              	db 06dh,06dh,061h,06eh,064h,021h,0dh,0ah,00h
 110  004C              public _handleATCommand
 110  004C              #pragma debug scope 10 1
 115  004C              #line 115 "C:\Users\icetz\OneDrive\文件\HTK_Project\UART\UART.c"
 115  0000              _handleATCommand .section 'code'
 115  0000              _handleATCommand proc
 115  0000              public _handleATCommand_2
 115  0000  0034[           local _handleATCommand_2 db 52 dup(?)	; 2,50
            00
            ]
 115  0034              #pragma debug pointer 46 7 10
 115  0034              #pragma debug pointer 46 7 10
 115  0034              #pragma debug variable 46 10 _handleATCommand_2+0 "cmd"
 115  0034              #pragma debug array 47 7 50 10
 115  0034              #pragma debug array 47 7 50 10
 115  0034              #pragma debug variable 47 10 _handleATCommand_2+2 "response"
 117  0034              #line 117 "C:\Users\icetz\OneDrive\文件\HTK_Project\UART\UART.c"
 117  0000  0F23        	mov a,35
 117  0001  0080     E  	mov _strchr_2[2],a
 117  0002  1F00     E  	clr _strchr_2[3]
 117  0003  0700     R  	mov a,_handleATCommand_2[0]
 117  0004  0080     E  	mov _strchr_2[0],a
 117  0005  0700     R  	mov a,_handleATCommand_2[1]
 117  0006  0080     E  	mov _strchr_2[1],a
 117  0007              	fcall _strchr
 118  000E              #line 118 "C:\Users\icetz\OneDrive\文件\HTK_Project\UART\UART.c"
 118  000E  0700     E  	mov a,ra
 118  000F  0500     E  	or a,rb
 118  0010  390A        	snz z
 118  0011  2800     R  	jmp _L30
 120  0012              #line 120 "C:\Users\icetz\OneDrive\文件\HTK_Project\UART\UART.c"
 120  0012  0F00     R  	mov a,low offset _LC0
 120  0013  0080     R  	mov _send_buff_2[0],a
 120  0014  0F00     R  	mov a,high offset _LC0
 120  0015  0080     R  	mov _send_buff_2[1],a
 120  0016  2800     R  	jmp _L37
 120  0017              _L30:
 124  0017              #line 124 "C:\Users\icetz\OneDrive\文件\HTK_Project\UART\UART.c"
 124  0017  0700     E  	mov a,ra
 124  0018  0083        	mov mp,a
 124  0019  0700     E  	mov a,rb
 124  001A  0084        	mov sbp,a
 124  001B  0F00        	mov a,0
 124  001C  0082        	mov ir,a
"File: UART.c        Assembler  Version HGASM0202      Page 12

 126  001D              #line 126 "C:\Users\icetz\OneDrive\文件\HTK_Project\UART\UART.c"
 126  001D  0F07        	mov a,7
 126  001E  0080     E  	mov _strncmp_2[4],a
 126  001F  1F00     E  	clr _strncmp_2[5]
 126  0020  0F00     R  	mov a,low offset _LC1
 126  0021  0080     E  	mov _strncmp_2[2],a
 126  0022  0F00     R  	mov a,high offset _LC1
 126  0023  0080     E  	mov _strncmp_2[3],a
 126  0024  0700     R  	mov a,_handleATCommand_2[0]
 126  0025  0080     E  	mov _strncmp_2[0],a
 126  0026  0700     R  	mov a,_handleATCommand_2[1]
 126  0027  0080     E  	mov _strncmp_2[1],a
 126  0028              	fcall _strncmp
 126  002F  0700     E  	mov a,ra
 126  0030  0500     E  	or a,rb
 126  0031  390A        	snz z
 126  0032  2800     R  	jmp _L32
 128  0033              #line 128 "C:\Users\icetz\OneDrive\文件\HTK_Project\UART\UART.c"
 128  0033  0F07        	mov a,7
 128  0034  0300     R  	add a,_handleATCommand_2[0]
 128  0035  0080     E  	mov _atoi_2[0],a
 128  0036  0F00        	mov a,0
 128  0037  1300     R  	adc a,_handleATCommand_2[1]
 128  0038  0080     E  	mov _atoi_2[1],a
 128  0039              	fcall _atoi
 128  0040  0700     E  	mov a,ra
 128  0041  0080     R  	mov _pwm_value[0],a
 128  0042  0700     E  	mov a,rb
 128  0043  0080     R  	mov _pwm_value[1],a
 129  0044              #line 129 "C:\Users\icetz\OneDrive\文件\HTK_Project\UART\UART.c"
 129  0044  0F00     R  	mov a,low offset _LC2
 129  0045  0080     R  	mov _send_buff_2[0],a
 129  0046  0F00     R  	mov a,high offset _LC2
 129  0047  0080     R  	mov _send_buff_2[1],a
 129  0048  2800     R  	jmp _L37
 129  0049              _L32:
 131  0049              #line 131 "C:\Users\icetz\OneDrive\文件\HTK_Project\UART\UART.c"
 131  0049  0F07        	mov a,7
 131  004A  0080     E  	mov _strncmp_2[4],a
 131  004B  1F00     E  	clr _strncmp_2[5]
 131  004C  0F00     R  	mov a,low offset _LC3
 131  004D  0080     E  	mov _strncmp_2[2],a
 131  004E  0F00     R  	mov a,high offset _LC3
 131  004F  0080     E  	mov _strncmp_2[3],a
 131  0050  0700     R  	mov a,_handleATCommand_2[0]
 131  0051  0080     E  	mov _strncmp_2[0],a
 131  0052  0700     R  	mov a,_handleATCommand_2[1]
 131  0053  0080     E  	mov _strncmp_2[1],a
 131  0054              	fcall _strncmp
 131  005B  0700     E  	mov a,ra
 131  005C  0500     E  	or a,rb
 131  005D  390A        	snz z
 131  005E  2800     R  	jmp _L34
 133  005F              #line 133 "C:\Users\icetz\OneDrive\文件\HTK_Project\UART\UART.c"
 133  005F  0F07        	mov a,7
 133  0060  0300     R  	add a,_handleATCommand_2[0]
 133  0061  0080     E  	mov _atoi_2[0],a
 133  0062  0F00        	mov a,0
 133  0063  1300     R  	adc a,_handleATCommand_2[1]
 133  0064  0080     E  	mov _atoi_2[1],a
"File: UART.c        Assembler  Version HGASM0202      Page 13

 133  0065              	fcall _atoi
 133  006C  0700     E  	mov a,ra
 133  006D  0080     R  	mov _pwr_value[0],a
 133  006E  0700     E  	mov a,rb
 133  006F  0080     R  	mov _pwr_value[1],a
 134  0070              #line 134 "C:\Users\icetz\OneDrive\文件\HTK_Project\UART\UART.c"
 134  0070  0F00     R  	mov a,low offset _LC4
 134  0071  0080     R  	mov _send_buff_2[0],a
 134  0072  0F00     R  	mov a,high offset _LC4
 134  0073  0080     R  	mov _send_buff_2[1],a
 134  0074  2800     R  	jmp _L37
 134  0075              _L34:
 136  0075              #line 136 "C:\Users\icetz\OneDrive\文件\HTK_Project\UART\UART.c"
 136  0075  0F07        	mov a,7
 136  0076  0080     E  	mov _strncmp_2[4],a
 136  0077  1F00     E  	clr _strncmp_2[5]
 136  0078  0F00     R  	mov a,low offset _LC5
 136  0079  0080     E  	mov _strncmp_2[2],a
 136  007A  0F00     R  	mov a,high offset _LC5
 136  007B  0080     E  	mov _strncmp_2[3],a
 136  007C  0700     R  	mov a,_handleATCommand_2[0]
 136  007D  0080     E  	mov _strncmp_2[0],a
 136  007E  0700     R  	mov a,_handleATCommand_2[1]
 136  007F  0080     E  	mov _strncmp_2[1],a
 136  0080              	fcall _strncmp
 136  0087  0700     E  	mov a,ra
 136  0088  0500     E  	or a,rb
 136  0089  390A        	snz z
 136  008A  2800     R  	jmp _L35
 138  008B              #line 138 "C:\Users\icetz\OneDrive\文件\HTK_Project\UART\UART.c"
 138  008B  0F07        	mov a,7
 138  008C  0300     R  	add a,_handleATCommand_2[0]
 138  008D  0080     E  	mov _atoi_2[0],a
 138  008E  0F00        	mov a,0
 138  008F  1300     R  	adc a,_handleATCommand_2[1]
 138  0090  0080     E  	mov _atoi_2[1],a
 138  0091              	fcall _atoi
 138  0098  0700     E  	mov a,ra
 138  0099  0080     R  	mov _ver_value[0],a
 138  009A  0700     E  	mov a,rb
 138  009B  0080     R  	mov _ver_value[1],a
 139  009C              #line 139 "C:\Users\icetz\OneDrive\文件\HTK_Project\UART\UART.c"
 139  009C  0F00     R  	mov a,low offset _LC6
 139  009D  0080     R  	mov _send_buff_2[0],a
 139  009E  0F00     R  	mov a,high offset _LC6
 139  009F  0080     R  	mov _send_buff_2[1],a
 139  00A0  2800     R  	jmp _L37
 139  00A1              _L35:
 141  00A1              #line 141 "C:\Users\icetz\OneDrive\文件\HTK_Project\UART\UART.c"
 141  00A1  0F07        	mov a,7
 141  00A2  0080     E  	mov _strncmp_2[4],a
 141  00A3  1F00     E  	clr _strncmp_2[5]
 141  00A4  0F00     R  	mov a,low offset _LC7
 141  00A5  0080     E  	mov _strncmp_2[2],a
 141  00A6  0F00     R  	mov a,high offset _LC7
 141  00A7  0080     E  	mov _strncmp_2[3],a
 141  00A8  0700     R  	mov a,_handleATCommand_2[0]
 141  00A9  0080     E  	mov _strncmp_2[0],a
 141  00AA  0700     R  	mov a,_handleATCommand_2[1]
 141  00AB  0080     E  	mov _strncmp_2[1],a
"File: UART.c        Assembler  Version HGASM0202      Page 14

 141  00AC              	fcall _strncmp
 141  00B3  0700     E  	mov a,ra
 141  00B4  0500     E  	or a,rb
 141  00B5  390A        	snz z
 141  00B6  2800     R  	jmp _L36
 144  00B7              #line 144 "C:\Users\icetz\OneDrive\文件\HTK_Project\UART\UART.c"
 144  00B7  0F00     R  	mov a,low offset _handleATCommand_2
 144  00B8  0080     E  	mov ra,a
 144  00B9  0F00     R  	mov a,high offset _handleATCommand_2
 144  00BA  0080     E  	mov rb,a
 144  00BB  0F02        	mov a,2
 144  00BC  0300     E  	add a,ra
 144  00BD  0080     R  	mov _intToStr_2[2],a
 144  00BE  0F00        	mov a,0
 144  00BF  1300     E  	adc a,rb
 144  00C0  0080     R  	mov _intToStr_2[3],a
 144  00C1  0700     R  	mov a,_pwm_value[0]
 144  00C2  0080     R  	mov _intToStr_2[0],a
 144  00C3  0700     R  	mov a,_pwm_value[1]
 144  00C4  0080     R  	mov _intToStr_2[1],a
 144  00C5              	fcall _intToStr
 145  00CC              #line 145 "C:\Users\icetz\OneDrive\文件\HTK_Project\UART\UART.c"
 145  00CC  0F00     R  	mov a,low offset _LC8
 145  00CD  0080     R  	mov _send_buff_2[0],a
 145  00CE  0F00     R  	mov a,high offset _LC8
 145  00CF  0080     R  	mov _send_buff_2[1],a
 145  00D0              	fcall _send_buff
 146  00D7              #line 146 "C:\Users\icetz\OneDrive\文件\HTK_Project\UART\UART.c"
 146  00D7  0F00     R  	mov a,low offset _handleATCommand_2
 146  00D8  0080     E  	mov ra,a
 146  00D9  0F00     R  	mov a,high offset _handleATCommand_2
 146  00DA  0080     E  	mov rb,a
 146  00DB  0F02        	mov a,2
 146  00DC  0300     E  	add a,ra
 146  00DD  0080     R  	mov _send_buff_2[0],a
 146  00DE  0F00        	mov a,0
 146  00DF  1300     E  	adc a,rb
 146  00E0  0080     R  	mov _send_buff_2[1],a
 146  00E1              	fcall _send_buff
 148  00E8              #line 148 "C:\Users\icetz\OneDrive\文件\HTK_Project\UART\UART.c"
 148  00E8  0F00     R  	mov a,low offset _LC9
 148  00E9  0080     R  	mov _send_buff_2[0],a
 148  00EA  0F00     R  	mov a,high offset _LC9
 148  00EB  0080     R  	mov _send_buff_2[1],a
 148  00EC              	fcall _send_buff
 149  00F3              #line 149 "C:\Users\icetz\OneDrive\文件\HTK_Project\UART\UART.c"
 149  00F3  0F00     R  	mov a,low offset _handleATCommand_2
 149  00F4  0080     E  	mov ra,a
 149  00F5  0F00     R  	mov a,high offset _handleATCommand_2
 149  00F6  0080     E  	mov rb,a
 149  00F7  0F02        	mov a,2
 149  00F8  0300     E  	add a,ra
 149  00F9  0080     R  	mov _intToStr_2[2],a
 149  00FA  0F00        	mov a,0
 149  00FB  1300     E  	adc a,rb
 149  00FC  0080     R  	mov _intToStr_2[3],a
 149  00FD  0700     R  	mov a,_pwr_value[0]
 149  00FE  0080     R  	mov _intToStr_2[0],a
 149  00FF  0700     R  	mov a,_pwr_value[1]
 149  0100  0080     R  	mov _intToStr_2[1],a
"File: UART.c        Assembler  Version HGASM0202      Page 15

 149  0101              	fcall _intToStr
 150  0108              #line 150 "C:\Users\icetz\OneDrive\文件\HTK_Project\UART\UART.c"
 150  0108  0F00     R  	mov a,low offset _handleATCommand_2
 150  0109  0080     E  	mov ra,a
 150  010A  0F00     R  	mov a,high offset _handleATCommand_2
 150  010B  0080     E  	mov rb,a
 150  010C  0F02        	mov a,2
 150  010D  0300     E  	add a,ra
 150  010E  0080     R  	mov _send_buff_2[0],a
 150  010F  0F00        	mov a,0
 150  0110  1300     E  	adc a,rb
 150  0111  0080     R  	mov _send_buff_2[1],a
 150  0112              	fcall _send_buff
 152  0119              #line 152 "C:\Users\icetz\OneDrive\文件\HTK_Project\UART\UART.c"
 152  0119  0F00     R  	mov a,low offset _LC10
 152  011A  0080     R  	mov _send_buff_2[0],a
 152  011B  0F00     R  	mov a,high offset _LC10
 152  011C  0080     R  	mov _send_buff_2[1],a
 152  011D              	fcall _send_buff
 153  0124              #line 153 "C:\Users\icetz\OneDrive\文件\HTK_Project\UART\UART.c"
 153  0124  0F00     R  	mov a,low offset _handleATCommand_2
 153  0125  0080     E  	mov ra,a
 153  0126  0F00     R  	mov a,high offset _handleATCommand_2
 153  0127  0080     E  	mov rb,a
 153  0128  0F02        	mov a,2
 153  0129  0300     E  	add a,ra
 153  012A  0080     R  	mov _intToStr_2[2],a
 153  012B  0F00        	mov a,0
 153  012C  1300     E  	adc a,rb
 153  012D  0080     R  	mov _intToStr_2[3],a
 153  012E  0700     R  	mov a,_ver_value[0]
 153  012F  0080     R  	mov _intToStr_2[0],a
 153  0130  0700     R  	mov a,_ver_value[1]
 153  0131  0080     R  	mov _intToStr_2[1],a
 153  0132              	fcall _intToStr
 154  0139              #line 154 "C:\Users\icetz\OneDrive\文件\HTK_Project\UART\UART.c"
 154  0139  0F00     R  	mov a,low offset _handleATCommand_2
 154  013A  0080     E  	mov ra,a
 154  013B  0F00     R  	mov a,high offset _handleATCommand_2
 154  013C  0080     E  	mov rb,a
 154  013D  0F02        	mov a,2
 154  013E  0300     E  	add a,ra
 154  013F  0080     R  	mov _send_buff_2[0],a
 154  0140  0F00        	mov a,0
 154  0141  1300     E  	adc a,rb
 154  0142  0080     R  	mov _send_buff_2[1],a
 154  0143              	fcall _send_buff
 156  014A              #line 156 "C:\Users\icetz\OneDrive\文件\HTK_Project\UART\UART.c"
 156  014A  0F00     R  	mov a,low offset _LC11
 156  014B  0080     R  	mov _send_buff_2[0],a
 156  014C  0F00     R  	mov a,high offset _LC11
 156  014D  0080     R  	mov _send_buff_2[1],a
 156  014E  2800     R  	jmp _L37
 156  014F              _L36:
 160  014F              #line 160 "C:\Users\icetz\OneDrive\文件\HTK_Project\UART\UART.c"
 160  014F  0F00     R  	mov a,low offset _LC12
 160  0150  0080     R  	mov _send_buff_2[0],a
 160  0151  0F00     R  	mov a,high offset _LC12
 160  0152  0080     R  	mov _send_buff_2[1],a
 160  0153              _L37:
"File: UART.c        Assembler  Version HGASM0202      Page 16

 160  0153              	fcall _send_buff
 160  015A  0003        	ret
 160  015B              _handleATCommand endp
 160  015B              #line 160 "C:\Users\icetz\OneDrive\文件\HTK_Project\UART\UART.c"
 160  015B              #pragma debug scope 1 1
 160  015B              public _main
 160  015B              #pragma debug scope 11 1
 168  015B              #line 168 "C:\Users\icetz\OneDrive\文件\HTK_Project\UART\UART.c"
 168  015B              IFDEF WITH_DEFAULT_STARTUP
 168  015B              extern _main_initial0:near
 168  015B              extern _main_startup:near
 168  015B              ENDIF
 168  015B              
 168  015B              ROMBANK 0 @start
 168  0000              @start .section com_l 'code'
 168  0000              _main_startup1:
 168  0000              @start .section com_e 'code'
 168  0000  0F00     R  	mov a,bank _main
 168  0001  008B        	mov bp,a
 168  0002  2800     R  	jmp _main
 168  0003              
 168  0000              _main .section 'code'
 168  0000              _main proc
 169  0000              #line 169 "C:\Users\icetz\OneDrive\文件\HTK_Project\UART\UART.c"
 169  0000              	fcall _inituart
 169  0007              _L39:
 172  0007              #line 172 "C:\Users\icetz\OneDrive\文件\HTK_Project\UART\UART.c"
 172  0007  0F2E        	mov a,46
 172  0008              	fcall _send_char
 173  000F              #line 173 "C:\Users\icetz\OneDrive\文件\HTK_Project\UART\UART.c"
 173  000F  0FF4        	mov a,-12
 173  0010  0080     R  	mov _Delayms_2[0],a
 173  0011  0F01        	mov a,1
 173  0012  0080     R  	mov _Delayms_2[1],a
 173  0013              	fcall _Delayms
 173  001A  2800     R  	jmp _L39
 173  001B  2800     R  	jmp $
 173  001C              _main endp
 173  001C              
 173  001C              @dummy endp
 173  001C              
 173  001C              #line 173 "C:\Users\icetz\OneDrive\文件\HTK_Project\UART\UART.c"
 173  001C              #pragma debug scope 1 1
 173  001C              public _UART0
 173  001C              #pragma debug scope 12 1
 178  001C              #line 178 "C:\Users\icetz\OneDrive\文件\HTK_Project\UART\UART.c"
 178  001C              rombank 0 @UART0_code
 178  0000              @UART0_code .section at 60 'code'
 178  0000  0080     E  	mov r1,a
 178  0001  070B        	mov a,bp
 178  0002  1F0B        	clr bp
 178  0003  2800     R  	jmp _UART0
 178  0004              ROMBANK 0 _UART0
 178  0004              #pragma debug scope 1 1
 178  0004              @dummy60 endp
 178  0004              #pragma debug scope 13 1
 178  0000              _UART0 .section 'code'
 178  0000              _UART0 proc
 178  0000  0064[       local _UART0_2 db 100 dup(?)
            00
"File: UART.c        Assembler  Version HGASM0202      Page 17

            ]
 178  0000  0080     E  	mov r2,a
 178  0001  070A        	mov a, status
 178  0002  0080     E  	mov r3,a
 178  0003  0703        	mov a,mp
 178  0004  0080     E  	mov r4,a
 178  0005  0704        	mov a,sbp
 178  0006  0080     E  	mov r5,a
 178  0007  0707        	mov a,tblp
 178  0008  0080     E  	mov r6,a
 178  0009  0709        	mov a,tbhp
 178  000A  0080     E  	mov r7,a
 178  000B              #pragma debug array 48 7 100 13
 178  000B              #pragma debug array 48 7 100 13
 178  000B              #pragma debug variable 48 13 _UART0_2+0 "buff"
 179  000B              #line 179 "C:\Users\icetz\OneDrive\文件\HTK_Project\UART\UART.c"
 179  000B  1F00     R  	clr _UART0_2[0]
 179  000C  1F00     R  	clr _UART0_2[1]
 179  000D  1F00     R  	clr _UART0_2[2]
 179  000E  1F00     R  	clr _UART0_2[3]
 179  000F  1F00     R  	clr _UART0_2[4]
 179  0010  1F00     R  	clr _UART0_2[5]
 179  0011  1F00     R  	clr _UART0_2[6]
 179  0012  1F00     R  	clr _UART0_2[7]
 179  0013  1F00     R  	clr _UART0_2[8]
 179  0014  1F00     R  	clr _UART0_2[9]
 179  0015  1F00     R  	clr _UART0_2[10]
 179  0016  1F00     R  	clr _UART0_2[11]
 179  0017  1F00     R  	clr _UART0_2[12]
 179  0018  1F00     R  	clr _UART0_2[13]
 179  0019  1F00     R  	clr _UART0_2[14]
 179  001A  1F00     R  	clr _UART0_2[15]
 179  001B  1F00     R  	clr _UART0_2[16]
 179  001C  1F00     R  	clr _UART0_2[17]
 179  001D  1F00     R  	clr _UART0_2[18]
 179  001E  1F00     R  	clr _UART0_2[19]
 179  001F  1F00     R  	clr _UART0_2[20]
 179  0020  1F00     R  	clr _UART0_2[21]
 179  0021  1F00     R  	clr _UART0_2[22]
 179  0022  1F00     R  	clr _UART0_2[23]
 179  0023  1F00     R  	clr _UART0_2[24]
 179  0024  1F00     R  	clr _UART0_2[25]
 179  0025  1F00     R  	clr _UART0_2[26]
 179  0026  1F00     R  	clr _UART0_2[27]
 179  0027  1F00     R  	clr _UART0_2[28]
 179  0028  1F00     R  	clr _UART0_2[29]
 179  0029  1F00     R  	clr _UART0_2[30]
 179  002A  1F00     R  	clr _UART0_2[31]
 179  002B  1F00     R  	clr _UART0_2[32]
 179  002C  1F00     R  	clr _UART0_2[33]
 179  002D  1F00     R  	clr _UART0_2[34]
 179  002E  1F00     R  	clr _UART0_2[35]
 179  002F  1F00     R  	clr _UART0_2[36]
 179  0030  1F00     R  	clr _UART0_2[37]
 179  0031  1F00     R  	clr _UART0_2[38]
 179  0032  1F00     R  	clr _UART0_2[39]
 179  0033  1F00     R  	clr _UART0_2[40]
 179  0034  1F00     R  	clr _UART0_2[41]
 179  0035  1F00     R  	clr _UART0_2[42]
 179  0036  1F00     R  	clr _UART0_2[43]
"File: UART.c        Assembler  Version HGASM0202      Page 18

 179  0037  1F00     R  	clr _UART0_2[44]
 179  0038  1F00     R  	clr _UART0_2[45]
 179  0039  1F00     R  	clr _UART0_2[46]
 179  003A  1F00     R  	clr _UART0_2[47]
 179  003B  1F00     R  	clr _UART0_2[48]
 179  003C  1F00     R  	clr _UART0_2[49]
 179  003D  1F00     R  	clr _UART0_2[50]
 179  003E  1F00     R  	clr _UART0_2[51]
 179  003F  1F00     R  	clr _UART0_2[52]
 179  0040  1F00     R  	clr _UART0_2[53]
 179  0041  1F00     R  	clr _UART0_2[54]
 179  0042  1F00     R  	clr _UART0_2[55]
 179  0043  1F00     R  	clr _UART0_2[56]
 179  0044  1F00     R  	clr _UART0_2[57]
 179  0045  1F00     R  	clr _UART0_2[58]
 179  0046  1F00     R  	clr _UART0_2[59]
 179  0047  1F00     R  	clr _UART0_2[60]
 179  0048  1F00     R  	clr _UART0_2[61]
 179  0049  1F00     R  	clr _UART0_2[62]
 179  004A  1F00     R  	clr _UART0_2[63]
 179  004B  1F00     R  	clr _UART0_2[64]
 179  004C  1F00     R  	clr _UART0_2[65]
 179  004D  1F00     R  	clr _UART0_2[66]
 179  004E  1F00     R  	clr _UART0_2[67]
 179  004F  1F00     R  	clr _UART0_2[68]
 179  0050  1F00     R  	clr _UART0_2[69]
 179  0051  1F00     R  	clr _UART0_2[70]
 179  0052  1F00     R  	clr _UART0_2[71]
 179  0053  1F00     R  	clr _UART0_2[72]
 179  0054  1F00     R  	clr _UART0_2[73]
 179  0055  1F00     R  	clr _UART0_2[74]
 179  0056  1F00     R  	clr _UART0_2[75]
 179  0057  1F00     R  	clr _UART0_2[76]
 179  0058  1F00     R  	clr _UART0_2[77]
 179  0059  1F00     R  	clr _UART0_2[78]
 179  005A  1F00     R  	clr _UART0_2[79]
 179  005B  1F00     R  	clr _UART0_2[80]
 179  005C  1F00     R  	clr _UART0_2[81]
 179  005D  1F00     R  	clr _UART0_2[82]
 179  005E  1F00     R  	clr _UART0_2[83]
 179  005F  1F00     R  	clr _UART0_2[84]
 179  0060  1F00     R  	clr _UART0_2[85]
 179  0061  1F00     R  	clr _UART0_2[86]
 179  0062  1F00     R  	clr _UART0_2[87]
 179  0063  1F00     R  	clr _UART0_2[88]
 179  0064  1F00     R  	clr _UART0_2[89]
 179  0065  1F00     R  	clr _UART0_2[90]
 179  0066  1F00     R  	clr _UART0_2[91]
 179  0067  1F00     R  	clr _UART0_2[92]
 179  0068  1F00     R  	clr _UART0_2[93]
 179  0069  1F00     R  	clr _UART0_2[94]
 179  006A  1F00     R  	clr _UART0_2[95]
 179  006B  1F00     R  	clr _UART0_2[96]
 179  006C  1F00     R  	clr _UART0_2[97]
 179  006D  1F00     R  	clr _UART0_2[98]
 179  006E  1F00     R  	clr _UART0_2[99]
 180  006F              #line 180 "C:\Users\icetz\OneDrive\文件\HTK_Project\UART\UART.c"
 180  006F  0F0A        	mov a,10
 180  0070  0080     R  	mov _get_buff_2[2],a
 180  0071  0F00     R  	mov a,low offset _UART0_2
"File: UART.c        Assembler  Version HGASM0202      Page 19

 180  0072  0080     R  	mov _get_buff_2[0],a
 180  0073  0F00     R  	mov a,high offset _UART0_2
 180  0074  0080     R  	mov _get_buff_2[1],a
 180  0075              	fcall _get_buff
 182  007C              #line 182 "C:\Users\icetz\OneDrive\文件\HTK_Project\UART\UART.c"
 182  007C  0F00     R  	mov a,low offset _UART0_2
 182  007D  0080     R  	mov _handleATCommand_2[0],a
 182  007E  0F00     R  	mov a,high offset _UART0_2
 182  007F  0080     R  	mov _handleATCommand_2[1],a
 182  0080              	fcall _handleATCommand
 184  0087              #line 184 "C:\Users\icetz\OneDrive\文件\HTK_Project\UART\UART.c"
 184  0087  3638        	clr [56].4
 184  0088  0700     E  	mov a,r2
 184  0089  008B        	mov bp,a
 184  008A  0700     E  	mov a,r3
 184  008B  008A        	mov status,a
 184  008C  0700     E  	mov a,r4
 184  008D  0083        	mov mp,a
 184  008E  0700     E  	mov a,r5
 184  008F  0084        	mov sbp,a
 184  0090  0700     E  	mov a,r6
 184  0091  0087        	mov tblp,a
 184  0092  0700     E  	mov a,r7
 184  0093  0089        	mov tbhp,a
 184  0094  1D05        	tabrdc acc
 184  0095  0700     E  	mov a,r1
 184  0096  0004        	reti
 184  0097              _UART0 endp
 184  0097              
 184  0097              #line 184 "C:\Users\icetz\OneDrive\文件\HTK_Project\UART\UART.c"
 184  0097              #pragma debug scope 1 1
 184  0097              public _ver_value
 184  0000              @HCCINIT	.section 'data'
  15  0000              #line 15 "C:\Users\icetz\OneDrive\文件\HTK_Project\UART\UART.c"
  15  0000              @HCCINIT_ver_value .section 'data'
  15  0000              _ver_value label byte
  15  0000              #pragma debug variable 10 1 _ver_value "ver_value"
  15  0000              	db 0
  15  0000              @ROMDATA_BASE .section inpage 'code'
  15  0000              	db 0
  15  0001              @HCCINIT_ver_value .section 'data'
  15  0001              	db 0
  15  0001              @ROMDATA_BASE .section inpage 'code'
  15  0001              	db 0
  15  0002              @HCCINIT_ver_value .section 'data'
  15  0002              public _pwr_value
  14  0002              #line 14 "C:\Users\icetz\OneDrive\文件\HTK_Project\UART\UART.c"
  14  0000              @HCCINIT_pwr_value .section 'data'
  14  0000              _pwr_value label byte
  14  0000              #pragma debug variable 10 1 _pwr_value "pwr_value"
  14  0000              	db 0
  14  0001              @ROMDATA_BASE .section inpage 'code'
  14  0001              	db 0
  14  0001              @HCCINIT_pwr_value .section 'data'
  14  0001              	db 0
  14  0002              @ROMDATA_BASE .section inpage 'code'
  14  0002              	db 0
  14  0002              @HCCINIT_pwr_value .section 'data'
  14  0002              public _pwm_value
  13  0002              #line 13 "C:\Users\icetz\OneDrive\文件\HTK_Project\UART\UART.c"
"File: UART.c        Assembler  Version HGASM0202      Page 20

  13  0000              @HCCINIT_pwm_value .section 'data'
  13  0000              _pwm_value label byte
  13  0000              #pragma debug variable 10 1 _pwm_value "pwm_value"
  13  0000              	db 0
  13  0002              @ROMDATA_BASE .section inpage 'code'
  13  0002              	db 0
  13  0001              @HCCINIT_pwm_value .section 'data'
  13  0001              	db 0
  13  0003              @ROMDATA_BASE .section inpage 'code'
  13  0003              	db 0
  13  0002              @HCCINIT_pwm_value .section 'data'
  13  0002              #pragma debug struct_end
  13  0002              #pragma debug struct_end
  13  0002              #pragma debug union_end
  13  0002              #pragma debug union_end
  13  0002              #pragma debug variable 50 1 ___intc0 "__intc0" 1
  13  0002              #pragma debug struct_end
  13  0002              #pragma debug struct_end
  13  0002              #pragma debug union_end
  13  0002              #pragma debug union_end
  13  0002              #pragma debug variable 52 1 ___intc3 "__intc3" 1
  13  0002              #pragma debug struct_end
  13  0002              #pragma debug struct_end
  13  0002              #pragma debug union_end
  13  0002              #pragma debug union_end
  13  0002              #pragma debug variable 54 1 ___mfi5 "__mfi5" 1
  13  0002              #pragma debug struct_end
  13  0002              #pragma debug struct_end
  13  0002              #pragma debug union_end
  13  0002              #pragma debug union_end
  13  0002              #pragma debug variable 56 1 ___wdtc "__wdtc" 1
  13  0002              #pragma debug struct_end
  13  0002              #pragma debug struct_end
  13  0002              #pragma debug union_end
  13  0002              #pragma debug union_end
  13  0002              #pragma debug variable 58 1 ___u0sr "__u0sr" 1
  13  0002              #pragma debug struct_end
  13  0002              #pragma debug struct_end
  13  0002              #pragma debug union_end
  13  0002              #pragma debug union_end
  13  0002              #pragma debug variable 60 1 ___u0cr1 "__u0cr1" 1
  13  0002              #pragma debug struct_end
  13  0002              #pragma debug struct_end
  13  0002              #pragma debug union_end
  13  0002              #pragma debug union_end
  13  0002              #pragma debug variable 62 1 ___u0cr2 "__u0cr2" 1
  13  0002              #pragma debug variable 8 1 ___txr_rxr0 "__txr_rxr0" 1
  13  0002              #pragma debug variable 8 1 ___brg0 "__brg0" 1
  13  0002              #pragma debug struct_end
  13  0002              #pragma debug struct_end
  13  0002              #pragma debug union_end
  13  0002              #pragma debug union_end
  13  0002              #pragma debug variable 64 1 ___pas1 "__pas1" 1
  13  0002              extern r1:byte
  13  0002              extern r2:byte
  13  0002              extern r3:byte
  13  0002              extern r4:byte
  13  0002              extern r5:byte
  13  0002              extern r6:byte
  13  0002              extern r7:byte
"File: UART.c        Assembler  Version HGASM0202      Page 21

 168  0002              #line 168 "C:\Users\icetz\OneDrive\文件\HTK_Project\UART\UART.c"
 168  0000              @code .section at 0 'code'
 168  0000  1F0B        	clr bp
 168  0001  2800     R  	jmp _main_startup1
 168  0002              
 168  0002              extern _builtin_holtek_divmodhi4:near
 168  0002              extern _builtin_holtek_udivmodhi4_2:byte
 168  0002              extern _builtin_holtek_udivmodhi4:near
 168  0002              extern _strchr_2:byte
 168  0002              extern _strchr:near
 168  0002              extern _strncmp_2:byte
 168  0002              extern _strncmp:near
 168  0002              extern _atoi_2:byte
 168  0002              extern _atoi:near
 168  0002              
 168  0002              ; 
 168  0002              ; Generated by holtek-gcc v3.19, Tue Oct 31 13:08:22 2023
 168  0002              ; Rebuild 718
 168  0002              ; end of file


        0 Errors, 0